
Lab4.elf:     file format elf32-littlearm

Sections:
Idx Name          Size      VMA       LMA       File off  Algn
  0 .isr_vector   00000188  2000d000  2000d000  0000d000  2**0
                  CONTENTS, ALLOC, LOAD, READONLY, DATA
  1 .text         00002e54  2000d190  2000d190  0000d190  2**4
                  CONTENTS, ALLOC, LOAD, READONLY, CODE
  2 .rodata       000004b8  2000ffe4  2000ffe4  0000ffe4  2**2
                  CONTENTS, ALLOC, LOAD, READONLY, DATA
  3 .ARM.extab    00000000  2001049c  2001049c  000104c8  2**0
                  CONTENTS
  4 .ARM          00000008  2001049c  2001049c  0001049c  2**2
                  CONTENTS, ALLOC, LOAD, READONLY, DATA
  5 .preinit_array 00000000  200104a4  200104c8  000104c8  2**0
                  CONTENTS, ALLOC, LOAD, DATA
  6 .init_array   00000004  200104a4  200104a4  000104a4  2**2
                  CONTENTS, ALLOC, LOAD, DATA
  7 .fini_array   00000004  200104a8  200104a8  000104a8  2**2
                  CONTENTS, ALLOC, LOAD, DATA
  8 .data         0000001c  200104ac  200104ac  000104ac  2**2
                  CONTENTS, ALLOC, LOAD, DATA
  9 .bss          00004a14  200104c8  200104c8  000104c8  2**2
                  ALLOC
 10 ._user_heap_stack 00000604  20014edc  20014edc  000104c8  2**0
                  ALLOC
 11 .ARM.attributes 00000030  00000000  00000000  000104c8  2**0
                  CONTENTS, READONLY
 12 .comment      00000053  00000000  00000000  000104f8  2**0
                  CONTENTS, READONLY
 13 .debug_frame  000000d4  00000000  00000000  0001054c  2**2
                  CONTENTS, READONLY, DEBUGGING, OCTETS

Disassembly of section .text:

2000d190 <__do_global_dtors_aux>:
2000d190:	b510      	push	{r4, lr}
2000d192:	4c05      	ldr	r4, [pc, #20]	; (2000d1a8 <__do_global_dtors_aux+0x18>)
2000d194:	7823      	ldrb	r3, [r4, #0]
2000d196:	b933      	cbnz	r3, 2000d1a6 <__do_global_dtors_aux+0x16>
2000d198:	4b04      	ldr	r3, [pc, #16]	; (2000d1ac <__do_global_dtors_aux+0x1c>)
2000d19a:	b113      	cbz	r3, 2000d1a2 <__do_global_dtors_aux+0x12>
2000d19c:	4804      	ldr	r0, [pc, #16]	; (2000d1b0 <__do_global_dtors_aux+0x20>)
2000d19e:	f3af 8000 	nop.w
2000d1a2:	2301      	movs	r3, #1
2000d1a4:	7023      	strb	r3, [r4, #0]
2000d1a6:	bd10      	pop	{r4, pc}
2000d1a8:	200104c8 	.word	0x200104c8
2000d1ac:	00000000 	.word	0x00000000
2000d1b0:	2000ffcc 	.word	0x2000ffcc

2000d1b4 <frame_dummy>:
2000d1b4:	b508      	push	{r3, lr}
2000d1b6:	4b03      	ldr	r3, [pc, #12]	; (2000d1c4 <frame_dummy+0x10>)
2000d1b8:	b11b      	cbz	r3, 2000d1c2 <frame_dummy+0xe>
2000d1ba:	4903      	ldr	r1, [pc, #12]	; (2000d1c8 <frame_dummy+0x14>)
2000d1bc:	4803      	ldr	r0, [pc, #12]	; (2000d1cc <frame_dummy+0x18>)
2000d1be:	f3af 8000 	nop.w
2000d1c2:	bd08      	pop	{r3, pc}
2000d1c4:	00000000 	.word	0x00000000
2000d1c8:	200104cc 	.word	0x200104cc
2000d1cc:	2000ffcc 	.word	0x2000ffcc

2000d1d0 <__aeabi_uldivmod>:
2000d1d0:	b953      	cbnz	r3, 2000d1e8 <__aeabi_uldivmod+0x18>
2000d1d2:	b94a      	cbnz	r2, 2000d1e8 <__aeabi_uldivmod+0x18>
2000d1d4:	2900      	cmp	r1, #0
2000d1d6:	bf08      	it	eq
2000d1d8:	2800      	cmpeq	r0, #0
2000d1da:	bf1c      	itt	ne
2000d1dc:	f04f 31ff 	movne.w	r1, #4294967295
2000d1e0:	f04f 30ff 	movne.w	r0, #4294967295
2000d1e4:	f000 b96e 	b.w	2000d4c4 <__aeabi_idiv0>
2000d1e8:	f1ad 0c08 	sub.w	ip, sp, #8
2000d1ec:	e96d ce04 	strd	ip, lr, [sp, #-16]!
2000d1f0:	f000 f806 	bl	2000d200 <__udivmoddi4>
2000d1f4:	f8dd e004 	ldr.w	lr, [sp, #4]
2000d1f8:	e9dd 2302 	ldrd	r2, r3, [sp, #8]
2000d1fc:	b004      	add	sp, #16
2000d1fe:	4770      	bx	lr

2000d200 <__udivmoddi4>:
2000d200:	e92d 47f0 	stmdb	sp!, {r4, r5, r6, r7, r8, r9, sl, lr}
2000d204:	9d08      	ldr	r5, [sp, #32]
2000d206:	4604      	mov	r4, r0
2000d208:	468c      	mov	ip, r1
2000d20a:	2b00      	cmp	r3, #0
2000d20c:	f040 8083 	bne.w	2000d316 <__udivmoddi4+0x116>
2000d210:	428a      	cmp	r2, r1
2000d212:	4617      	mov	r7, r2
2000d214:	d947      	bls.n	2000d2a6 <__udivmoddi4+0xa6>
2000d216:	fab2 f282 	clz	r2, r2
2000d21a:	b142      	cbz	r2, 2000d22e <__udivmoddi4+0x2e>
2000d21c:	f1c2 0020 	rsb	r0, r2, #32
2000d220:	fa24 f000 	lsr.w	r0, r4, r0
2000d224:	4091      	lsls	r1, r2
2000d226:	4097      	lsls	r7, r2
2000d228:	ea40 0c01 	orr.w	ip, r0, r1
2000d22c:	4094      	lsls	r4, r2
2000d22e:	ea4f 4817 	mov.w	r8, r7, lsr #16
2000d232:	0c23      	lsrs	r3, r4, #16
2000d234:	fbbc f6f8 	udiv	r6, ip, r8
2000d238:	fa1f fe87 	uxth.w	lr, r7
2000d23c:	fb08 c116 	mls	r1, r8, r6, ip
2000d240:	ea43 4301 	orr.w	r3, r3, r1, lsl #16
2000d244:	fb06 f10e 	mul.w	r1, r6, lr
2000d248:	4299      	cmp	r1, r3
2000d24a:	d909      	bls.n	2000d260 <__udivmoddi4+0x60>
2000d24c:	18fb      	adds	r3, r7, r3
2000d24e:	f106 30ff 	add.w	r0, r6, #4294967295
2000d252:	f080 8119 	bcs.w	2000d488 <__udivmoddi4+0x288>
2000d256:	4299      	cmp	r1, r3
2000d258:	f240 8116 	bls.w	2000d488 <__udivmoddi4+0x288>
2000d25c:	3e02      	subs	r6, #2
2000d25e:	443b      	add	r3, r7
2000d260:	1a5b      	subs	r3, r3, r1
2000d262:	b2a4      	uxth	r4, r4
2000d264:	fbb3 f0f8 	udiv	r0, r3, r8
2000d268:	fb08 3310 	mls	r3, r8, r0, r3
2000d26c:	ea44 4403 	orr.w	r4, r4, r3, lsl #16
2000d270:	fb00 fe0e 	mul.w	lr, r0, lr
2000d274:	45a6      	cmp	lr, r4
2000d276:	d909      	bls.n	2000d28c <__udivmoddi4+0x8c>
2000d278:	193c      	adds	r4, r7, r4
2000d27a:	f100 33ff 	add.w	r3, r0, #4294967295
2000d27e:	f080 8105 	bcs.w	2000d48c <__udivmoddi4+0x28c>
2000d282:	45a6      	cmp	lr, r4
2000d284:	f240 8102 	bls.w	2000d48c <__udivmoddi4+0x28c>
2000d288:	3802      	subs	r0, #2
2000d28a:	443c      	add	r4, r7
2000d28c:	ea40 4006 	orr.w	r0, r0, r6, lsl #16
2000d290:	eba4 040e 	sub.w	r4, r4, lr
2000d294:	2600      	movs	r6, #0
2000d296:	b11d      	cbz	r5, 2000d2a0 <__udivmoddi4+0xa0>
2000d298:	40d4      	lsrs	r4, r2
2000d29a:	2300      	movs	r3, #0
2000d29c:	e9c5 4300 	strd	r4, r3, [r5]
2000d2a0:	4631      	mov	r1, r6
2000d2a2:	e8bd 87f0 	ldmia.w	sp!, {r4, r5, r6, r7, r8, r9, sl, pc}
2000d2a6:	b902      	cbnz	r2, 2000d2aa <__udivmoddi4+0xaa>
2000d2a8:	deff      	udf	#255	; 0xff
2000d2aa:	fab2 f282 	clz	r2, r2
2000d2ae:	2a00      	cmp	r2, #0
2000d2b0:	d150      	bne.n	2000d354 <__udivmoddi4+0x154>
2000d2b2:	1bcb      	subs	r3, r1, r7
2000d2b4:	ea4f 4e17 	mov.w	lr, r7, lsr #16
2000d2b8:	fa1f f887 	uxth.w	r8, r7
2000d2bc:	2601      	movs	r6, #1
2000d2be:	fbb3 fcfe 	udiv	ip, r3, lr
2000d2c2:	0c21      	lsrs	r1, r4, #16
2000d2c4:	fb0e 331c 	mls	r3, lr, ip, r3
2000d2c8:	ea41 4103 	orr.w	r1, r1, r3, lsl #16
2000d2cc:	fb08 f30c 	mul.w	r3, r8, ip
2000d2d0:	428b      	cmp	r3, r1
2000d2d2:	d907      	bls.n	2000d2e4 <__udivmoddi4+0xe4>
2000d2d4:	1879      	adds	r1, r7, r1
2000d2d6:	f10c 30ff 	add.w	r0, ip, #4294967295
2000d2da:	d202      	bcs.n	2000d2e2 <__udivmoddi4+0xe2>
2000d2dc:	428b      	cmp	r3, r1
2000d2de:	f200 80e9 	bhi.w	2000d4b4 <__udivmoddi4+0x2b4>
2000d2e2:	4684      	mov	ip, r0
2000d2e4:	1ac9      	subs	r1, r1, r3
2000d2e6:	b2a3      	uxth	r3, r4
2000d2e8:	fbb1 f0fe 	udiv	r0, r1, lr
2000d2ec:	fb0e 1110 	mls	r1, lr, r0, r1
2000d2f0:	ea43 4401 	orr.w	r4, r3, r1, lsl #16
2000d2f4:	fb08 f800 	mul.w	r8, r8, r0
2000d2f8:	45a0      	cmp	r8, r4
2000d2fa:	d907      	bls.n	2000d30c <__udivmoddi4+0x10c>
2000d2fc:	193c      	adds	r4, r7, r4
2000d2fe:	f100 33ff 	add.w	r3, r0, #4294967295
2000d302:	d202      	bcs.n	2000d30a <__udivmoddi4+0x10a>
2000d304:	45a0      	cmp	r8, r4
2000d306:	f200 80d9 	bhi.w	2000d4bc <__udivmoddi4+0x2bc>
2000d30a:	4618      	mov	r0, r3
2000d30c:	eba4 0408 	sub.w	r4, r4, r8
2000d310:	ea40 400c 	orr.w	r0, r0, ip, lsl #16
2000d314:	e7bf      	b.n	2000d296 <__udivmoddi4+0x96>
2000d316:	428b      	cmp	r3, r1
2000d318:	d909      	bls.n	2000d32e <__udivmoddi4+0x12e>
2000d31a:	2d00      	cmp	r5, #0
2000d31c:	f000 80b1 	beq.w	2000d482 <__udivmoddi4+0x282>
2000d320:	2600      	movs	r6, #0
2000d322:	e9c5 0100 	strd	r0, r1, [r5]
2000d326:	4630      	mov	r0, r6
2000d328:	4631      	mov	r1, r6
2000d32a:	e8bd 87f0 	ldmia.w	sp!, {r4, r5, r6, r7, r8, r9, sl, pc}
2000d32e:	fab3 f683 	clz	r6, r3
2000d332:	2e00      	cmp	r6, #0
2000d334:	d14a      	bne.n	2000d3cc <__udivmoddi4+0x1cc>
2000d336:	428b      	cmp	r3, r1
2000d338:	d302      	bcc.n	2000d340 <__udivmoddi4+0x140>
2000d33a:	4282      	cmp	r2, r0
2000d33c:	f200 80b8 	bhi.w	2000d4b0 <__udivmoddi4+0x2b0>
2000d340:	1a84      	subs	r4, r0, r2
2000d342:	eb61 0103 	sbc.w	r1, r1, r3
2000d346:	2001      	movs	r0, #1
2000d348:	468c      	mov	ip, r1
2000d34a:	2d00      	cmp	r5, #0
2000d34c:	d0a8      	beq.n	2000d2a0 <__udivmoddi4+0xa0>
2000d34e:	e9c5 4c00 	strd	r4, ip, [r5]
2000d352:	e7a5      	b.n	2000d2a0 <__udivmoddi4+0xa0>
2000d354:	f1c2 0320 	rsb	r3, r2, #32
2000d358:	fa20 f603 	lsr.w	r6, r0, r3
2000d35c:	4097      	lsls	r7, r2
2000d35e:	fa01 f002 	lsl.w	r0, r1, r2
2000d362:	ea4f 4e17 	mov.w	lr, r7, lsr #16
2000d366:	40d9      	lsrs	r1, r3
2000d368:	4330      	orrs	r0, r6
2000d36a:	0c03      	lsrs	r3, r0, #16
2000d36c:	fbb1 f6fe 	udiv	r6, r1, lr
2000d370:	fa1f f887 	uxth.w	r8, r7
2000d374:	fb0e 1116 	mls	r1, lr, r6, r1
2000d378:	ea43 4301 	orr.w	r3, r3, r1, lsl #16
2000d37c:	fb06 f108 	mul.w	r1, r6, r8
2000d380:	4299      	cmp	r1, r3
2000d382:	fa04 f402 	lsl.w	r4, r4, r2
2000d386:	d909      	bls.n	2000d39c <__udivmoddi4+0x19c>
2000d388:	18fb      	adds	r3, r7, r3
2000d38a:	f106 3cff 	add.w	ip, r6, #4294967295
2000d38e:	f080 808d 	bcs.w	2000d4ac <__udivmoddi4+0x2ac>
2000d392:	4299      	cmp	r1, r3
2000d394:	f240 808a 	bls.w	2000d4ac <__udivmoddi4+0x2ac>
2000d398:	3e02      	subs	r6, #2
2000d39a:	443b      	add	r3, r7
2000d39c:	1a5b      	subs	r3, r3, r1
2000d39e:	b281      	uxth	r1, r0
2000d3a0:	fbb3 f0fe 	udiv	r0, r3, lr
2000d3a4:	fb0e 3310 	mls	r3, lr, r0, r3
2000d3a8:	ea41 4103 	orr.w	r1, r1, r3, lsl #16
2000d3ac:	fb00 f308 	mul.w	r3, r0, r8
2000d3b0:	428b      	cmp	r3, r1
2000d3b2:	d907      	bls.n	2000d3c4 <__udivmoddi4+0x1c4>
2000d3b4:	1879      	adds	r1, r7, r1
2000d3b6:	f100 3cff 	add.w	ip, r0, #4294967295
2000d3ba:	d273      	bcs.n	2000d4a4 <__udivmoddi4+0x2a4>
2000d3bc:	428b      	cmp	r3, r1
2000d3be:	d971      	bls.n	2000d4a4 <__udivmoddi4+0x2a4>
2000d3c0:	3802      	subs	r0, #2
2000d3c2:	4439      	add	r1, r7
2000d3c4:	1acb      	subs	r3, r1, r3
2000d3c6:	ea40 4606 	orr.w	r6, r0, r6, lsl #16
2000d3ca:	e778      	b.n	2000d2be <__udivmoddi4+0xbe>
2000d3cc:	f1c6 0c20 	rsb	ip, r6, #32
2000d3d0:	fa03 f406 	lsl.w	r4, r3, r6
2000d3d4:	fa22 f30c 	lsr.w	r3, r2, ip
2000d3d8:	431c      	orrs	r4, r3
2000d3da:	fa20 f70c 	lsr.w	r7, r0, ip
2000d3de:	fa01 f306 	lsl.w	r3, r1, r6
2000d3e2:	ea4f 4e14 	mov.w	lr, r4, lsr #16
2000d3e6:	fa21 f10c 	lsr.w	r1, r1, ip
2000d3ea:	431f      	orrs	r7, r3
2000d3ec:	0c3b      	lsrs	r3, r7, #16
2000d3ee:	fbb1 f9fe 	udiv	r9, r1, lr
2000d3f2:	fa1f f884 	uxth.w	r8, r4
2000d3f6:	fb0e 1119 	mls	r1, lr, r9, r1
2000d3fa:	ea43 4101 	orr.w	r1, r3, r1, lsl #16
2000d3fe:	fb09 fa08 	mul.w	sl, r9, r8
2000d402:	458a      	cmp	sl, r1
2000d404:	fa02 f206 	lsl.w	r2, r2, r6
2000d408:	fa00 f306 	lsl.w	r3, r0, r6
2000d40c:	d908      	bls.n	2000d420 <__udivmoddi4+0x220>
2000d40e:	1861      	adds	r1, r4, r1
2000d410:	f109 30ff 	add.w	r0, r9, #4294967295
2000d414:	d248      	bcs.n	2000d4a8 <__udivmoddi4+0x2a8>
2000d416:	458a      	cmp	sl, r1
2000d418:	d946      	bls.n	2000d4a8 <__udivmoddi4+0x2a8>
2000d41a:	f1a9 0902 	sub.w	r9, r9, #2
2000d41e:	4421      	add	r1, r4
2000d420:	eba1 010a 	sub.w	r1, r1, sl
2000d424:	b2bf      	uxth	r7, r7
2000d426:	fbb1 f0fe 	udiv	r0, r1, lr
2000d42a:	fb0e 1110 	mls	r1, lr, r0, r1
2000d42e:	ea47 4701 	orr.w	r7, r7, r1, lsl #16
2000d432:	fb00 f808 	mul.w	r8, r0, r8
2000d436:	45b8      	cmp	r8, r7
2000d438:	d907      	bls.n	2000d44a <__udivmoddi4+0x24a>
2000d43a:	19e7      	adds	r7, r4, r7
2000d43c:	f100 31ff 	add.w	r1, r0, #4294967295
2000d440:	d22e      	bcs.n	2000d4a0 <__udivmoddi4+0x2a0>
2000d442:	45b8      	cmp	r8, r7
2000d444:	d92c      	bls.n	2000d4a0 <__udivmoddi4+0x2a0>
2000d446:	3802      	subs	r0, #2
2000d448:	4427      	add	r7, r4
2000d44a:	ea40 4009 	orr.w	r0, r0, r9, lsl #16
2000d44e:	eba7 0708 	sub.w	r7, r7, r8
2000d452:	fba0 8902 	umull	r8, r9, r0, r2
2000d456:	454f      	cmp	r7, r9
2000d458:	46c6      	mov	lr, r8
2000d45a:	4649      	mov	r1, r9
2000d45c:	d31a      	bcc.n	2000d494 <__udivmoddi4+0x294>
2000d45e:	d017      	beq.n	2000d490 <__udivmoddi4+0x290>
2000d460:	b15d      	cbz	r5, 2000d47a <__udivmoddi4+0x27a>
2000d462:	ebb3 020e 	subs.w	r2, r3, lr
2000d466:	eb67 0701 	sbc.w	r7, r7, r1
2000d46a:	fa07 fc0c 	lsl.w	ip, r7, ip
2000d46e:	40f2      	lsrs	r2, r6
2000d470:	ea4c 0202 	orr.w	r2, ip, r2
2000d474:	40f7      	lsrs	r7, r6
2000d476:	e9c5 2700 	strd	r2, r7, [r5]
2000d47a:	2600      	movs	r6, #0
2000d47c:	4631      	mov	r1, r6
2000d47e:	e8bd 87f0 	ldmia.w	sp!, {r4, r5, r6, r7, r8, r9, sl, pc}
2000d482:	462e      	mov	r6, r5
2000d484:	4628      	mov	r0, r5
2000d486:	e70b      	b.n	2000d2a0 <__udivmoddi4+0xa0>
2000d488:	4606      	mov	r6, r0
2000d48a:	e6e9      	b.n	2000d260 <__udivmoddi4+0x60>
2000d48c:	4618      	mov	r0, r3
2000d48e:	e6fd      	b.n	2000d28c <__udivmoddi4+0x8c>
2000d490:	4543      	cmp	r3, r8
2000d492:	d2e5      	bcs.n	2000d460 <__udivmoddi4+0x260>
2000d494:	ebb8 0e02 	subs.w	lr, r8, r2
2000d498:	eb69 0104 	sbc.w	r1, r9, r4
2000d49c:	3801      	subs	r0, #1
2000d49e:	e7df      	b.n	2000d460 <__udivmoddi4+0x260>
2000d4a0:	4608      	mov	r0, r1
2000d4a2:	e7d2      	b.n	2000d44a <__udivmoddi4+0x24a>
2000d4a4:	4660      	mov	r0, ip
2000d4a6:	e78d      	b.n	2000d3c4 <__udivmoddi4+0x1c4>
2000d4a8:	4681      	mov	r9, r0
2000d4aa:	e7b9      	b.n	2000d420 <__udivmoddi4+0x220>
2000d4ac:	4666      	mov	r6, ip
2000d4ae:	e775      	b.n	2000d39c <__udivmoddi4+0x19c>
2000d4b0:	4630      	mov	r0, r6
2000d4b2:	e74a      	b.n	2000d34a <__udivmoddi4+0x14a>
2000d4b4:	f1ac 0c02 	sub.w	ip, ip, #2
2000d4b8:	4439      	add	r1, r7
2000d4ba:	e713      	b.n	2000d2e4 <__udivmoddi4+0xe4>
2000d4bc:	3802      	subs	r0, #2
2000d4be:	443c      	add	r4, r7
2000d4c0:	e724      	b.n	2000d30c <__udivmoddi4+0x10c>
2000d4c2:	bf00      	nop

2000d4c4 <__aeabi_idiv0>:
2000d4c4:	4770      	bx	lr
2000d4c6:	bf00      	nop

2000d4c8 <crc32stream>:
2000d4c8:	4048      	eors	r0, r1
2000d4ca:	4b04      	ldr	r3, [pc, #16]	; (2000d4dc <crc32stream+0x14>)
2000d4cc:	b2c0      	uxtb	r0, r0
2000d4ce:	f853 0020 	ldr.w	r0, [r3, r0, lsl #2]
2000d4d2:	ea80 2011 	eor.w	r0, r0, r1, lsr #8
2000d4d6:	43c0      	mvns	r0, r0
2000d4d8:	4770      	bx	lr
2000d4da:	bf00      	nop
2000d4dc:	2000ffe4 	.word	0x2000ffe4

2000d4e0 <crc32>:
2000d4e0:	b538      	push	{r3, r4, r5, lr}
2000d4e2:	4604      	mov	r4, r0
2000d4e4:	1845      	adds	r5, r0, r1
2000d4e6:	4610      	mov	r0, r2
2000d4e8:	42ac      	cmp	r4, r5
2000d4ea:	d100      	bne.n	2000d4ee <crc32+0xe>
2000d4ec:	bd38      	pop	{r3, r4, r5, pc}
2000d4ee:	4601      	mov	r1, r0
2000d4f0:	f814 0b01 	ldrb.w	r0, [r4], #1
2000d4f4:	f7ff ffe8 	bl	2000d4c8 <crc32stream>
2000d4f8:	e7f6      	b.n	2000d4e8 <crc32+0x8>

2000d4fa <SDK_MAIN_Wrapper>:
2000d4fa:	f000 b803 	b.w	2000d504 <SDK_SYS_Init>

2000d4fe <SDK_SYS_Shutdown>:
2000d4fe:	f000 b883 	b.w	2000d608 <SDK_TRACE_Stop>
	...

2000d504 <SDK_SYS_Init>:
2000d504:	b508      	push	{r3, lr}
2000d506:	f000 f863 	bl	2000d5d0 <MX_TRACE_Init>
2000d50a:	f000 f875 	bl	2000d5f8 <SDK_TRACE_Start>
2000d50e:	4805      	ldr	r0, [pc, #20]	; (2000d524 <SDK_SYS_Init+0x20>)
2000d510:	2200      	movs	r2, #0
2000d512:	f641 3158 	movw	r1, #7000	; 0x1b58
2000d516:	f000 f827 	bl	2000d568 <SDK_TIM_AddInterrupt>
2000d51a:	e8bd 4008 	ldmia.w	sp!, {r3, lr}
2000d51e:	f001 b801 	b.w	2000e524 <osKernelStart>
2000d522:	bf00      	nop
2000d524:	2000d4ff 	.word	0x2000d4ff

2000d528 <SDK_SYS_Tick>:
2000d528:	f000 b834 	b.w	2000d594 <SDK_TIM_Update>

2000d52c <SDK_LED_Toggle>:
2000d52c:	1e43      	subs	r3, r0, #1
2000d52e:	b513      	push	{r0, r1, r4, lr}
2000d530:	b29b      	uxth	r3, r3
2000d532:	2b02      	cmp	r3, #2
2000d534:	bf96      	itet	ls
2000d536:	4a0a      	ldrls	r2, [pc, #40]	; (2000d560 <SDK_LED_Toggle+0x34>)
2000d538:	2100      	movhi	r1, #0
2000d53a:	f832 1013 	ldrhls.w	r1, [r2, r3, lsl #1]
2000d53e:	9101      	str	r1, [sp, #4]
2000d540:	4604      	mov	r4, r0
2000d542:	4808      	ldr	r0, [pc, #32]	; (2000d564 <SDK_LED_Toggle+0x38>)
2000d544:	f000 fbcb 	bl	2000dcde <HAL_GPIO_TogglePin>
2000d548:	9901      	ldr	r1, [sp, #4]
2000d54a:	4806      	ldr	r0, [pc, #24]	; (2000d564 <SDK_LED_Toggle+0x38>)
2000d54c:	f000 fbbc 	bl	2000dcc8 <HAL_GPIO_ReadPin>
2000d550:	4601      	mov	r1, r0
2000d552:	b2e0      	uxtb	r0, r4
2000d554:	b002      	add	sp, #8
2000d556:	e8bd 4010 	ldmia.w	sp!, {r4, lr}
2000d55a:	f000 b877 	b.w	2000d64c <SDK_TRACE_Timestamp>
2000d55e:	bf00      	nop
2000d560:	200103e4 	.word	0x200103e4
2000d564:	40020c00 	.word	0x40020c00

2000d568 <SDK_TIM_AddInterrupt>:
2000d568:	b5f0      	push	{r4, r5, r6, r7, lr}
2000d56a:	4d08      	ldr	r5, [pc, #32]	; (2000d58c <SDK_TIM_AddInterrupt+0x24>)
2000d56c:	682b      	ldr	r3, [r5, #0]
2000d56e:	2b04      	cmp	r3, #4
2000d570:	d80a      	bhi.n	2000d588 <SDK_TIM_AddInterrupt+0x20>
2000d572:	4e07      	ldr	r6, [pc, #28]	; (2000d590 <SDK_TIM_AddInterrupt+0x28>)
2000d574:	011f      	lsls	r7, r3, #4
2000d576:	eb06 1403 	add.w	r4, r6, r3, lsl #4
2000d57a:	51f0      	str	r0, [r6, r7]
2000d57c:	6061      	str	r1, [r4, #4]
2000d57e:	3301      	adds	r3, #1
2000d580:	2100      	movs	r1, #0
2000d582:	60a1      	str	r1, [r4, #8]
2000d584:	7322      	strb	r2, [r4, #12]
2000d586:	602b      	str	r3, [r5, #0]
2000d588:	bdf0      	pop	{r4, r5, r6, r7, pc}
2000d58a:	bf00      	nop
2000d58c:	20010534 	.word	0x20010534
2000d590:	200104e4 	.word	0x200104e4

2000d594 <SDK_TIM_Update>:
2000d594:	b5f8      	push	{r3, r4, r5, r6, r7, lr}
2000d596:	2500      	movs	r5, #0
2000d598:	4c0b      	ldr	r4, [pc, #44]	; (2000d5c8 <SDK_TIM_Update+0x34>)
2000d59a:	4e0c      	ldr	r6, [pc, #48]	; (2000d5cc <SDK_TIM_Update+0x38>)
2000d59c:	462f      	mov	r7, r5
2000d59e:	6833      	ldr	r3, [r6, #0]
2000d5a0:	42ab      	cmp	r3, r5
2000d5a2:	d800      	bhi.n	2000d5a6 <SDK_TIM_Update+0x12>
2000d5a4:	bdf8      	pop	{r3, r4, r5, r6, r7, pc}
2000d5a6:	6822      	ldr	r2, [r4, #0]
2000d5a8:	b152      	cbz	r2, 2000d5c0 <SDK_TIM_Update+0x2c>
2000d5aa:	68a3      	ldr	r3, [r4, #8]
2000d5ac:	6861      	ldr	r1, [r4, #4]
2000d5ae:	3301      	adds	r3, #1
2000d5b0:	428b      	cmp	r3, r1
2000d5b2:	60a3      	str	r3, [r4, #8]
2000d5b4:	d304      	bcc.n	2000d5c0 <SDK_TIM_Update+0x2c>
2000d5b6:	60a7      	str	r7, [r4, #8]
2000d5b8:	4790      	blx	r2
2000d5ba:	7b23      	ldrb	r3, [r4, #12]
2000d5bc:	b903      	cbnz	r3, 2000d5c0 <SDK_TIM_Update+0x2c>
2000d5be:	6023      	str	r3, [r4, #0]
2000d5c0:	3501      	adds	r5, #1
2000d5c2:	3410      	adds	r4, #16
2000d5c4:	e7eb      	b.n	2000d59e <SDK_TIM_Update+0xa>
2000d5c6:	bf00      	nop
2000d5c8:	200104e4 	.word	0x200104e4
2000d5cc:	20010534 	.word	0x20010534

2000d5d0 <MX_TRACE_Init>:
2000d5d0:	4a07      	ldr	r2, [pc, #28]	; (2000d5f0 <MX_TRACE_Init+0x20>)
2000d5d2:	6813      	ldr	r3, [r2, #0]
2000d5d4:	f043 7380 	orr.w	r3, r3, #16777216	; 0x1000000
2000d5d8:	6013      	str	r3, [r2, #0]
2000d5da:	f5a2 425d 	sub.w	r2, r2, #56576	; 0xdd00
2000d5de:	3af8      	subs	r2, #248	; 0xf8
2000d5e0:	2300      	movs	r3, #0
2000d5e2:	6013      	str	r3, [r2, #0]
2000d5e4:	4a03      	ldr	r2, [pc, #12]	; (2000d5f4 <MX_TRACE_Init+0x24>)
2000d5e6:	6812      	ldr	r2, [r2, #0]
2000d5e8:	e9c2 3300 	strd	r3, r3, [r2]
2000d5ec:	6093      	str	r3, [r2, #8]
2000d5ee:	4770      	bx	lr
2000d5f0:	e000edfc 	.word	0xe000edfc
2000d5f4:	200104b0 	.word	0x200104b0

2000d5f8 <SDK_TRACE_Start>:
2000d5f8:	4a02      	ldr	r2, [pc, #8]	; (2000d604 <SDK_TRACE_Start+0xc>)
2000d5fa:	6813      	ldr	r3, [r2, #0]
2000d5fc:	f043 0301 	orr.w	r3, r3, #1
2000d600:	6013      	str	r3, [r2, #0]
2000d602:	4770      	bx	lr
2000d604:	e0001000 	.word	0xe0001000

2000d608 <SDK_TRACE_Stop>:
2000d608:	4a0a      	ldr	r2, [pc, #40]	; (2000d634 <SDK_TRACE_Stop+0x2c>)
2000d60a:	480b      	ldr	r0, [pc, #44]	; (2000d638 <SDK_TRACE_Stop+0x30>)
2000d60c:	6813      	ldr	r3, [r2, #0]
2000d60e:	f023 0301 	bic.w	r3, r3, #1
2000d612:	b510      	push	{r4, lr}
2000d614:	6013      	str	r3, [r2, #0]
2000d616:	4b09      	ldr	r3, [pc, #36]	; (2000d63c <SDK_TRACE_Stop+0x34>)
2000d618:	681c      	ldr	r4, [r3, #0]
2000d61a:	4b09      	ldr	r3, [pc, #36]	; (2000d640 <SDK_TRACE_Stop+0x38>)
2000d61c:	681b      	ldr	r3, [r3, #0]
2000d61e:	6819      	ldr	r1, [r3, #0]
2000d620:	2200      	movs	r2, #0
2000d622:	3110      	adds	r1, #16
2000d624:	f7ff ff5c 	bl	2000d4e0 <crc32>
2000d628:	4b06      	ldr	r3, [pc, #24]	; (2000d644 <SDK_TRACE_Stop+0x3c>)
2000d62a:	4a07      	ldr	r2, [pc, #28]	; (2000d648 <SDK_TRACE_Stop+0x40>)
2000d62c:	6020      	str	r0, [r4, #0]
2000d62e:	60da      	str	r2, [r3, #12]
2000d630:	bd10      	pop	{r4, pc}
2000d632:	bf00      	nop
2000d634:	e0001000 	.word	0xe0001000
2000d638:	10000004 	.word	0x10000004
2000d63c:	200104ac 	.word	0x200104ac
2000d640:	200104b0 	.word	0x200104b0
2000d644:	e000ed00 	.word	0xe000ed00
2000d648:	05fa0004 	.word	0x05fa0004

2000d64c <SDK_TRACE_Timestamp>:
2000d64c:	b5f8      	push	{r3, r4, r5, r6, r7, lr}
2000d64e:	4b0f      	ldr	r3, [pc, #60]	; (2000d68c <SDK_TRACE_Timestamp+0x40>)
2000d650:	4e0f      	ldr	r6, [pc, #60]	; (2000d690 <SDK_TRACE_Timestamp+0x44>)
2000d652:	681d      	ldr	r5, [r3, #0]
2000d654:	f501 7180 	add.w	r1, r1, #256	; 0x100
2000d658:	eb00 2401 	add.w	r4, r0, r1, lsl #8
2000d65c:	f000 fdda 	bl	2000e214 <HAL_RCC_GetHCLKFreq>
2000d660:	4b0c      	ldr	r3, [pc, #48]	; (2000d694 <SDK_TRACE_Timestamp+0x48>)
2000d662:	6836      	ldr	r6, [r6, #0]
2000d664:	681a      	ldr	r2, [r3, #0]
2000d666:	f8df c034 	ldr.w	ip, [pc, #52]	; 2000d69c <SDK_TRACE_Timestamp+0x50>
2000d66a:	6813      	ldr	r3, [r2, #0]
2000d66c:	fbb0 f0fc 	udiv	r0, r0, ip
2000d670:	f023 0107 	bic.w	r1, r3, #7
2000d674:	1877      	adds	r7, r6, r1
2000d676:	3308      	adds	r3, #8
2000d678:	fbb5 f5f0 	udiv	r5, r5, r0
2000d67c:	5075      	str	r5, [r6, r1]
2000d67e:	607c      	str	r4, [r7, #4]
2000d680:	6013      	str	r3, [r2, #0]
2000d682:	4a05      	ldr	r2, [pc, #20]	; (2000d698 <SDK_TRACE_Timestamp+0x4c>)
2000d684:	7813      	ldrb	r3, [r2, #0]
2000d686:	3301      	adds	r3, #1
2000d688:	7013      	strb	r3, [r2, #0]
2000d68a:	bdf8      	pop	{r3, r4, r5, r6, r7, pc}
2000d68c:	e0001004 	.word	0xe0001004
2000d690:	200104b4 	.word	0x200104b4
2000d694:	200104b0 	.word	0x200104b0
2000d698:	20010538 	.word	0x20010538
2000d69c:	000f4240 	.word	0x000f4240

2000d6a0 <StartBlink01>:
2000d6a0:	b508      	push	{r3, lr}
2000d6a2:	2001      	movs	r0, #1
2000d6a4:	f7ff ff42 	bl	2000d52c <SDK_LED_Toggle>
2000d6a8:	f44f 702f 	mov.w	r0, #700	; 0x2bc
2000d6ac:	f000 ffb0 	bl	2000e610 <osDelay>
2000d6b0:	e7f7      	b.n	2000d6a2 <StartBlink01+0x2>

2000d6b2 <StartBlink02>:
2000d6b2:	b508      	push	{r3, lr}
2000d6b4:	2002      	movs	r0, #2
2000d6b6:	f7ff ff39 	bl	2000d52c <SDK_LED_Toggle>
2000d6ba:	f44f 7061 	mov.w	r0, #900	; 0x384
2000d6be:	f000 ffa7 	bl	2000e610 <osDelay>
2000d6c2:	e7f7      	b.n	2000d6b4 <StartBlink02+0x2>

2000d6c4 <StartBlink03>:
2000d6c4:	b508      	push	{r3, lr}
2000d6c6:	2003      	movs	r0, #3
2000d6c8:	f7ff ff30 	bl	2000d52c <SDK_LED_Toggle>
2000d6cc:	f44f 6096 	mov.w	r0, #1200	; 0x4b0
2000d6d0:	f000 ff9e 	bl	2000e610 <osDelay>
2000d6d4:	e7f7      	b.n	2000d6c6 <StartBlink03+0x2>
	...

2000d6d8 <MX_FREERTOS_Init>:
2000d6d8:	b508      	push	{r3, lr}
2000d6da:	4a0b      	ldr	r2, [pc, #44]	; (2000d708 <MX_FREERTOS_Init+0x30>)
2000d6dc:	480b      	ldr	r0, [pc, #44]	; (2000d70c <MX_FREERTOS_Init+0x34>)
2000d6de:	2100      	movs	r1, #0
2000d6e0:	f000 ff40 	bl	2000e564 <osThreadNew>
2000d6e4:	4b0a      	ldr	r3, [pc, #40]	; (2000d710 <MX_FREERTOS_Init+0x38>)
2000d6e6:	4a0b      	ldr	r2, [pc, #44]	; (2000d714 <MX_FREERTOS_Init+0x3c>)
2000d6e8:	6018      	str	r0, [r3, #0]
2000d6ea:	2100      	movs	r1, #0
2000d6ec:	480a      	ldr	r0, [pc, #40]	; (2000d718 <MX_FREERTOS_Init+0x40>)
2000d6ee:	f000 ff39 	bl	2000e564 <osThreadNew>
2000d6f2:	4b0a      	ldr	r3, [pc, #40]	; (2000d71c <MX_FREERTOS_Init+0x44>)
2000d6f4:	4a0a      	ldr	r2, [pc, #40]	; (2000d720 <MX_FREERTOS_Init+0x48>)
2000d6f6:	6018      	str	r0, [r3, #0]
2000d6f8:	2100      	movs	r1, #0
2000d6fa:	480a      	ldr	r0, [pc, #40]	; (2000d724 <MX_FREERTOS_Init+0x4c>)
2000d6fc:	f000 ff32 	bl	2000e564 <osThreadNew>
2000d700:	4b09      	ldr	r3, [pc, #36]	; (2000d728 <MX_FREERTOS_Init+0x50>)
2000d702:	6018      	str	r0, [r3, #0]
2000d704:	bd08      	pop	{r3, pc}
2000d706:	bf00      	nop
2000d708:	20010404 	.word	0x20010404
2000d70c:	2000d6a1 	.word	0x2000d6a1
2000d710:	20014e44 	.word	0x20014e44
2000d714:	20010428 	.word	0x20010428
2000d718:	2000d6b3 	.word	0x2000d6b3
2000d71c:	20014e48 	.word	0x20014e48
2000d720:	2001044c 	.word	0x2001044c
2000d724:	2000d6c5 	.word	0x2000d6c5
2000d728:	20014e40 	.word	0x20014e40

2000d72c <MX_GPIO_Init>:
2000d72c:	b510      	push	{r4, lr}
2000d72e:	2214      	movs	r2, #20
2000d730:	b08a      	sub	sp, #40	; 0x28
2000d732:	eb0d 0002 	add.w	r0, sp, r2
2000d736:	2100      	movs	r1, #0
2000d738:	f002 fc40 	bl	2000ffbc <memset>
2000d73c:	2400      	movs	r4, #0
2000d73e:	4b1e      	ldr	r3, [pc, #120]	; (2000d7b8 <MX_GPIO_Init+0x8c>)
2000d740:	9401      	str	r4, [sp, #4]
2000d742:	6b1a      	ldr	r2, [r3, #48]	; 0x30
2000d744:	481d      	ldr	r0, [pc, #116]	; (2000d7bc <MX_GPIO_Init+0x90>)
2000d746:	f042 0280 	orr.w	r2, r2, #128	; 0x80
2000d74a:	631a      	str	r2, [r3, #48]	; 0x30
2000d74c:	6b1a      	ldr	r2, [r3, #48]	; 0x30
2000d74e:	f002 0280 	and.w	r2, r2, #128	; 0x80
2000d752:	9201      	str	r2, [sp, #4]
2000d754:	9a01      	ldr	r2, [sp, #4]
2000d756:	9402      	str	r4, [sp, #8]
2000d758:	6b1a      	ldr	r2, [r3, #48]	; 0x30
2000d75a:	f042 0208 	orr.w	r2, r2, #8
2000d75e:	631a      	str	r2, [r3, #48]	; 0x30
2000d760:	6b1a      	ldr	r2, [r3, #48]	; 0x30
2000d762:	f002 0208 	and.w	r2, r2, #8
2000d766:	9202      	str	r2, [sp, #8]
2000d768:	9a02      	ldr	r2, [sp, #8]
2000d76a:	9403      	str	r4, [sp, #12]
2000d76c:	6b1a      	ldr	r2, [r3, #48]	; 0x30
2000d76e:	f042 0201 	orr.w	r2, r2, #1
2000d772:	631a      	str	r2, [r3, #48]	; 0x30
2000d774:	6b1a      	ldr	r2, [r3, #48]	; 0x30
2000d776:	f002 0201 	and.w	r2, r2, #1
2000d77a:	9203      	str	r2, [sp, #12]
2000d77c:	9a03      	ldr	r2, [sp, #12]
2000d77e:	9404      	str	r4, [sp, #16]
2000d780:	6b1a      	ldr	r2, [r3, #48]	; 0x30
2000d782:	f042 0202 	orr.w	r2, r2, #2
2000d786:	631a      	str	r2, [r3, #48]	; 0x30
2000d788:	6b1b      	ldr	r3, [r3, #48]	; 0x30
2000d78a:	f003 0302 	and.w	r3, r3, #2
2000d78e:	9304      	str	r3, [sp, #16]
2000d790:	4622      	mov	r2, r4
2000d792:	f44f 4160 	mov.w	r1, #57344	; 0xe000
2000d796:	9b04      	ldr	r3, [sp, #16]
2000d798:	f000 fa9c 	bl	2000dcd4 <HAL_GPIO_WritePin>
2000d79c:	f44f 4260 	mov.w	r2, #57344	; 0xe000
2000d7a0:	2301      	movs	r3, #1
2000d7a2:	e9cd 2305 	strd	r2, r3, [sp, #20]
2000d7a6:	4805      	ldr	r0, [pc, #20]	; (2000d7bc <MX_GPIO_Init+0x90>)
2000d7a8:	9407      	str	r4, [sp, #28]
2000d7aa:	2302      	movs	r3, #2
2000d7ac:	a905      	add	r1, sp, #20
2000d7ae:	9308      	str	r3, [sp, #32]
2000d7b0:	f000 f9ac 	bl	2000db0c <HAL_GPIO_Init>
2000d7b4:	b00a      	add	sp, #40	; 0x28
2000d7b6:	bd10      	pop	{r4, pc}
2000d7b8:	40023800 	.word	0x40023800
2000d7bc:	40020c00 	.word	0x40020c00

2000d7c0 <MX_IWDG_Init>:
2000d7c0:	4808      	ldr	r0, [pc, #32]	; (2000d7e4 <MX_IWDG_Init+0x24>)
2000d7c2:	4a09      	ldr	r2, [pc, #36]	; (2000d7e8 <MX_IWDG_Init+0x28>)
2000d7c4:	b508      	push	{r3, lr}
2000d7c6:	2304      	movs	r3, #4
2000d7c8:	e9c0 2300 	strd	r2, r3, [r0]
2000d7cc:	f640 73ff 	movw	r3, #4095	; 0xfff
2000d7d0:	6083      	str	r3, [r0, #8]
2000d7d2:	f000 fa8b 	bl	2000dcec <HAL_IWDG_Init>
2000d7d6:	b118      	cbz	r0, 2000d7e0 <MX_IWDG_Init+0x20>
2000d7d8:	e8bd 4008 	ldmia.w	sp!, {r3, lr}
2000d7dc:	f000 b874 	b.w	2000d8c8 <Error_Handler>
2000d7e0:	bd08      	pop	{r3, pc}
2000d7e2:	bf00      	nop
2000d7e4:	20014e4c 	.word	0x20014e4c
2000d7e8:	40003000 	.word	0x40003000

2000d7ec <SystemClock_Config>:
2000d7ec:	b530      	push	{r4, r5, lr}
2000d7ee:	2400      	movs	r4, #0
2000d7f0:	b095      	sub	sp, #84	; 0x54
2000d7f2:	4621      	mov	r1, r4
2000d7f4:	2214      	movs	r2, #20
2000d7f6:	a803      	add	r0, sp, #12
2000d7f8:	e9cd 440a 	strd	r4, r4, [sp, #40]	; 0x28
2000d7fc:	940c      	str	r4, [sp, #48]	; 0x30
2000d7fe:	f002 fbdd 	bl	2000ffbc <memset>
2000d802:	4b1e      	ldr	r3, [pc, #120]	; (2000d87c <SystemClock_Config+0x90>)
2000d804:	9401      	str	r4, [sp, #4]
2000d806:	6c1a      	ldr	r2, [r3, #64]	; 0x40
2000d808:	f042 5280 	orr.w	r2, r2, #268435456	; 0x10000000
2000d80c:	641a      	str	r2, [r3, #64]	; 0x40
2000d80e:	6c1b      	ldr	r3, [r3, #64]	; 0x40
2000d810:	f003 5380 	and.w	r3, r3, #268435456	; 0x10000000
2000d814:	9301      	str	r3, [sp, #4]
2000d816:	9b01      	ldr	r3, [sp, #4]
2000d818:	4b19      	ldr	r3, [pc, #100]	; (2000d880 <SystemClock_Config+0x94>)
2000d81a:	9402      	str	r4, [sp, #8]
2000d81c:	681a      	ldr	r2, [r3, #0]
2000d81e:	f442 4280 	orr.w	r2, r2, #16384	; 0x4000
2000d822:	601a      	str	r2, [r3, #0]
2000d824:	681b      	ldr	r3, [r3, #0]
2000d826:	f403 4380 	and.w	r3, r3, #16384	; 0x4000
2000d82a:	9302      	str	r3, [sp, #8]
2000d82c:	2209      	movs	r2, #9
2000d82e:	9b02      	ldr	r3, [sp, #8]
2000d830:	f44f 3380 	mov.w	r3, #65536	; 0x10000
2000d834:	e9cd 2308 	strd	r2, r3, [sp, #32]
2000d838:	2502      	movs	r5, #2
2000d83a:	2301      	movs	r3, #1
2000d83c:	e9cd 350d 	strd	r3, r5, [sp, #52]	; 0x34
2000d840:	f44f 0180 	mov.w	r1, #4194304	; 0x400000
2000d844:	2319      	movs	r3, #25
2000d846:	e9cd 130f 	strd	r1, r3, [sp, #60]	; 0x3c
2000d84a:	f44f 73a8 	mov.w	r3, #336	; 0x150
2000d84e:	e9cd 3511 	strd	r3, r5, [sp, #68]	; 0x44
2000d852:	a808      	add	r0, sp, #32
2000d854:	2304      	movs	r3, #4
2000d856:	9313      	str	r3, [sp, #76]	; 0x4c
2000d858:	f000 fa6a 	bl	2000dd30 <HAL_RCC_OscConfig>
2000d85c:	230f      	movs	r3, #15
2000d85e:	e9cd 3503 	strd	r3, r5, [sp, #12]
2000d862:	f44f 50a0 	mov.w	r0, #5120	; 0x1400
2000d866:	f44f 5380 	mov.w	r3, #4096	; 0x1000
2000d86a:	e9cd 0306 	strd	r0, r3, [sp, #24]
2000d86e:	2105      	movs	r1, #5
2000d870:	a803      	add	r0, sp, #12
2000d872:	9405      	str	r4, [sp, #20]
2000d874:	f000 fc32 	bl	2000e0dc <HAL_RCC_ClockConfig>
2000d878:	b015      	add	sp, #84	; 0x54
2000d87a:	bd30      	pop	{r4, r5, pc}
2000d87c:	40023800 	.word	0x40023800
2000d880:	40007000 	.word	0x40007000

2000d884 <main>:
2000d884:	b508      	push	{r3, lr}
2000d886:	f000 f8c3 	bl	2000da10 <HAL_Init>
2000d88a:	f7ff ffaf 	bl	2000d7ec <SystemClock_Config>
2000d88e:	2005      	movs	r0, #5
2000d890:	f000 f8ea 	bl	2000da68 <HAL_NVIC_SetPriorityGrouping>
2000d894:	f7ff ff4a 	bl	2000d72c <MX_GPIO_Init>
2000d898:	f7ff ff92 	bl	2000d7c0 <MX_IWDG_Init>
2000d89c:	f000 fe28 	bl	2000e4f0 <osKernelInitialize>
2000d8a0:	f7ff ff1a 	bl	2000d6d8 <MX_FREERTOS_Init>
2000d8a4:	f7ff fe29 	bl	2000d4fa <SDK_MAIN_Wrapper>
2000d8a8:	e7fe      	b.n	2000d8a8 <main+0x24>
	...

2000d8ac <HAL_TIM_PeriodElapsedCallback>:
2000d8ac:	b508      	push	{r3, lr}
2000d8ae:	6802      	ldr	r2, [r0, #0]
2000d8b0:	4b04      	ldr	r3, [pc, #16]	; (2000d8c4 <HAL_TIM_PeriodElapsedCallback+0x18>)
2000d8b2:	429a      	cmp	r2, r3
2000d8b4:	d105      	bne.n	2000d8c2 <HAL_TIM_PeriodElapsedCallback+0x16>
2000d8b6:	f000 f8c5 	bl	2000da44 <HAL_IncTick>
2000d8ba:	e8bd 4008 	ldmia.w	sp!, {r3, lr}
2000d8be:	f7ff be33 	b.w	2000d528 <SDK_SYS_Tick>
2000d8c2:	bd08      	pop	{r3, pc}
2000d8c4:	40001000 	.word	0x40001000

2000d8c8 <Error_Handler>:
2000d8c8:	4770      	bx	lr
	...

2000d8cc <HAL_MspInit>:
2000d8cc:	b082      	sub	sp, #8
2000d8ce:	4b0e      	ldr	r3, [pc, #56]	; (2000d908 <HAL_MspInit+0x3c>)
2000d8d0:	2200      	movs	r2, #0
2000d8d2:	9200      	str	r2, [sp, #0]
2000d8d4:	6c59      	ldr	r1, [r3, #68]	; 0x44
2000d8d6:	f441 4180 	orr.w	r1, r1, #16384	; 0x4000
2000d8da:	6459      	str	r1, [r3, #68]	; 0x44
2000d8dc:	6c59      	ldr	r1, [r3, #68]	; 0x44
2000d8de:	f401 4180 	and.w	r1, r1, #16384	; 0x4000
2000d8e2:	9100      	str	r1, [sp, #0]
2000d8e4:	9900      	ldr	r1, [sp, #0]
2000d8e6:	9201      	str	r2, [sp, #4]
2000d8e8:	6c19      	ldr	r1, [r3, #64]	; 0x40
2000d8ea:	f041 5180 	orr.w	r1, r1, #268435456	; 0x10000000
2000d8ee:	6419      	str	r1, [r3, #64]	; 0x40
2000d8f0:	6c1b      	ldr	r3, [r3, #64]	; 0x40
2000d8f2:	f003 5380 	and.w	r3, r3, #268435456	; 0x10000000
2000d8f6:	9301      	str	r3, [sp, #4]
2000d8f8:	9b01      	ldr	r3, [sp, #4]
2000d8fa:	210f      	movs	r1, #15
2000d8fc:	f06f 0001 	mvn.w	r0, #1
2000d900:	b002      	add	sp, #8
2000d902:	f000 b8c3 	b.w	2000da8c <HAL_NVIC_SetPriority>
2000d906:	bf00      	nop
2000d908:	40023800 	.word	0x40023800

2000d90c <HAL_InitTick>:
2000d90c:	b530      	push	{r4, r5, lr}
2000d90e:	4601      	mov	r1, r0
2000d910:	b089      	sub	sp, #36	; 0x24
2000d912:	2200      	movs	r2, #0
2000d914:	2036      	movs	r0, #54	; 0x36
2000d916:	f000 f8b9 	bl	2000da8c <HAL_NVIC_SetPriority>
2000d91a:	2036      	movs	r0, #54	; 0x36
2000d91c:	f000 f8e8 	bl	2000daf0 <HAL_NVIC_EnableIRQ>
2000d920:	2500      	movs	r5, #0
2000d922:	4b15      	ldr	r3, [pc, #84]	; (2000d978 <HAL_InitTick+0x6c>)
2000d924:	9502      	str	r5, [sp, #8]
2000d926:	6c1a      	ldr	r2, [r3, #64]	; 0x40
2000d928:	4c14      	ldr	r4, [pc, #80]	; (2000d97c <HAL_InitTick+0x70>)
2000d92a:	f042 0210 	orr.w	r2, r2, #16
2000d92e:	641a      	str	r2, [r3, #64]	; 0x40
2000d930:	6c1b      	ldr	r3, [r3, #64]	; 0x40
2000d932:	f003 0310 	and.w	r3, r3, #16
2000d936:	9302      	str	r3, [sp, #8]
2000d938:	a901      	add	r1, sp, #4
2000d93a:	a803      	add	r0, sp, #12
2000d93c:	9b02      	ldr	r3, [sp, #8]
2000d93e:	f000 fc7f 	bl	2000e240 <HAL_RCC_GetClockConfig>
2000d942:	f000 fc6d 	bl	2000e220 <HAL_RCC_GetPCLK1Freq>
2000d946:	4b0e      	ldr	r3, [pc, #56]	; (2000d980 <HAL_InitTick+0x74>)
2000d948:	6023      	str	r3, [r4, #0]
2000d94a:	f240 33e7 	movw	r3, #999	; 0x3e7
2000d94e:	60e3      	str	r3, [r4, #12]
2000d950:	0040      	lsls	r0, r0, #1
2000d952:	4b0c      	ldr	r3, [pc, #48]	; (2000d984 <HAL_InitTick+0x78>)
2000d954:	fbb0 f0f3 	udiv	r0, r0, r3
2000d958:	3801      	subs	r0, #1
2000d95a:	6060      	str	r0, [r4, #4]
2000d95c:	4620      	mov	r0, r4
2000d95e:	6125      	str	r5, [r4, #16]
2000d960:	60a5      	str	r5, [r4, #8]
2000d962:	f000 fda9 	bl	2000e4b8 <HAL_TIM_Base_Init>
2000d966:	b920      	cbnz	r0, 2000d972 <HAL_InitTick+0x66>
2000d968:	4620      	mov	r0, r4
2000d96a:	f000 fc88 	bl	2000e27e <HAL_TIM_Base_Start_IT>
2000d96e:	b009      	add	sp, #36	; 0x24
2000d970:	bd30      	pop	{r4, r5, pc}
2000d972:	2001      	movs	r0, #1
2000d974:	e7fb      	b.n	2000d96e <HAL_InitTick+0x62>
2000d976:	bf00      	nop
2000d978:	40023800 	.word	0x40023800
2000d97c:	20014e58 	.word	0x20014e58
2000d980:	40001000 	.word	0x40001000
2000d984:	000f4240 	.word	0x000f4240

2000d988 <NMI_Handler>:
2000d988:	4770      	bx	lr

2000d98a <HardFault_Handler>:
2000d98a:	e7fe      	b.n	2000d98a <HardFault_Handler>

2000d98c <MemManage_Handler>:
2000d98c:	e7fe      	b.n	2000d98c <MemManage_Handler>

2000d98e <BusFault_Handler>:
2000d98e:	e7fe      	b.n	2000d98e <BusFault_Handler>

2000d990 <UsageFault_Handler>:
2000d990:	e7fe      	b.n	2000d990 <UsageFault_Handler>

2000d992 <DebugMon_Handler>:
2000d992:	4770      	bx	lr

2000d994 <TIM6_DAC_IRQHandler>:
2000d994:	4801      	ldr	r0, [pc, #4]	; (2000d99c <TIM6_DAC_IRQHandler+0x8>)
2000d996:	f000 bc86 	b.w	2000e2a6 <HAL_TIM_IRQHandler>
2000d99a:	bf00      	nop
2000d99c:	20014e58 	.word	0x20014e58

2000d9a0 <SystemInit>:
2000d9a0:	4b04      	ldr	r3, [pc, #16]	; (2000d9b4 <SystemInit+0x14>)
2000d9a2:	f8d3 2088 	ldr.w	r2, [r3, #136]	; 0x88
2000d9a6:	f442 0270 	orr.w	r2, r2, #15728640	; 0xf00000
2000d9aa:	f8c3 2088 	str.w	r2, [r3, #136]	; 0x88
2000d9ae:	4a02      	ldr	r2, [pc, #8]	; (2000d9b8 <SystemInit+0x18>)
2000d9b0:	609a      	str	r2, [r3, #8]
2000d9b2:	4770      	bx	lr
2000d9b4:	e000ed00 	.word	0xe000ed00
2000d9b8:	2000d000 	.word	0x2000d000

2000d9bc <Reset_Handler>:
2000d9bc:	f8df d034 	ldr.w	sp, [pc, #52]	; 2000d9f4 <LoopFillZerobss+0x14>
2000d9c0:	2100      	movs	r1, #0
2000d9c2:	e003      	b.n	2000d9cc <LoopCopyDataInit>

2000d9c4 <CopyDataInit>:
2000d9c4:	4b0c      	ldr	r3, [pc, #48]	; (2000d9f8 <LoopFillZerobss+0x18>)
2000d9c6:	585b      	ldr	r3, [r3, r1]
2000d9c8:	5043      	str	r3, [r0, r1]
2000d9ca:	3104      	adds	r1, #4

2000d9cc <LoopCopyDataInit>:
2000d9cc:	480b      	ldr	r0, [pc, #44]	; (2000d9fc <LoopFillZerobss+0x1c>)
2000d9ce:	4b0c      	ldr	r3, [pc, #48]	; (2000da00 <LoopFillZerobss+0x20>)
2000d9d0:	1842      	adds	r2, r0, r1
2000d9d2:	429a      	cmp	r2, r3
2000d9d4:	d3f6      	bcc.n	2000d9c4 <CopyDataInit>
2000d9d6:	4a0b      	ldr	r2, [pc, #44]	; (2000da04 <LoopFillZerobss+0x24>)
2000d9d8:	e002      	b.n	2000d9e0 <LoopFillZerobss>

2000d9da <FillZerobss>:
2000d9da:	2300      	movs	r3, #0
2000d9dc:	f842 3b04 	str.w	r3, [r2], #4

2000d9e0 <LoopFillZerobss>:
2000d9e0:	4b09      	ldr	r3, [pc, #36]	; (2000da08 <LoopFillZerobss+0x28>)
2000d9e2:	429a      	cmp	r2, r3
2000d9e4:	d3f9      	bcc.n	2000d9da <FillZerobss>
2000d9e6:	f7ff ffdb 	bl	2000d9a0 <SystemInit>
2000d9ea:	f002 fab5 	bl	2000ff58 <__libc_init_array>
2000d9ee:	f7ff ff49 	bl	2000d884 <main>
2000d9f2:	4770      	bx	lr
2000d9f4:	20020000 	.word	0x20020000
2000d9f8:	200104ac 	.word	0x200104ac
2000d9fc:	200104ac 	.word	0x200104ac
2000da00:	200104c8 	.word	0x200104c8
2000da04:	200104c8 	.word	0x200104c8
2000da08:	20014edc 	.word	0x20014edc

2000da0c <ADC_IRQHandler>:
2000da0c:	e7fe      	b.n	2000da0c <ADC_IRQHandler>
	...

2000da10 <HAL_Init>:
2000da10:	b508      	push	{r3, lr}
2000da12:	4b0b      	ldr	r3, [pc, #44]	; (2000da40 <HAL_Init+0x30>)
2000da14:	681a      	ldr	r2, [r3, #0]
2000da16:	f442 7200 	orr.w	r2, r2, #512	; 0x200
2000da1a:	601a      	str	r2, [r3, #0]
2000da1c:	681a      	ldr	r2, [r3, #0]
2000da1e:	f442 6280 	orr.w	r2, r2, #1024	; 0x400
2000da22:	601a      	str	r2, [r3, #0]
2000da24:	681a      	ldr	r2, [r3, #0]
2000da26:	f442 7280 	orr.w	r2, r2, #256	; 0x100
2000da2a:	601a      	str	r2, [r3, #0]
2000da2c:	2003      	movs	r0, #3
2000da2e:	f000 f81b 	bl	2000da68 <HAL_NVIC_SetPriorityGrouping>
2000da32:	2000      	movs	r0, #0
2000da34:	f7ff ff6a 	bl	2000d90c <HAL_InitTick>
2000da38:	f7ff ff48 	bl	2000d8cc <HAL_MspInit>
2000da3c:	2000      	movs	r0, #0
2000da3e:	bd08      	pop	{r3, pc}
2000da40:	40023c00 	.word	0x40023c00

2000da44 <HAL_IncTick>:
2000da44:	4a03      	ldr	r2, [pc, #12]	; (2000da54 <HAL_IncTick+0x10>)
2000da46:	4b04      	ldr	r3, [pc, #16]	; (2000da58 <HAL_IncTick+0x14>)
2000da48:	6811      	ldr	r1, [r2, #0]
2000da4a:	781b      	ldrb	r3, [r3, #0]
2000da4c:	440b      	add	r3, r1
2000da4e:	6013      	str	r3, [r2, #0]
2000da50:	4770      	bx	lr
2000da52:	bf00      	nop
2000da54:	20014e98 	.word	0x20014e98
2000da58:	200104bc 	.word	0x200104bc

2000da5c <HAL_GetTick>:
2000da5c:	4b01      	ldr	r3, [pc, #4]	; (2000da64 <HAL_GetTick+0x8>)
2000da5e:	6818      	ldr	r0, [r3, #0]
2000da60:	4770      	bx	lr
2000da62:	bf00      	nop
2000da64:	20014e98 	.word	0x20014e98

2000da68 <HAL_NVIC_SetPriorityGrouping>:
2000da68:	4907      	ldr	r1, [pc, #28]	; (2000da88 <HAL_NVIC_SetPriorityGrouping+0x20>)
2000da6a:	68ca      	ldr	r2, [r1, #12]
2000da6c:	f422 62e0 	bic.w	r2, r2, #1792	; 0x700
2000da70:	0203      	lsls	r3, r0, #8
2000da72:	0412      	lsls	r2, r2, #16
2000da74:	f403 63e0 	and.w	r3, r3, #1792	; 0x700
2000da78:	0c12      	lsrs	r2, r2, #16
2000da7a:	4313      	orrs	r3, r2
2000da7c:	f043 63bf 	orr.w	r3, r3, #100139008	; 0x5f80000
2000da80:	f443 3300 	orr.w	r3, r3, #131072	; 0x20000
2000da84:	60cb      	str	r3, [r1, #12]
2000da86:	4770      	bx	lr
2000da88:	e000ed00 	.word	0xe000ed00

2000da8c <HAL_NVIC_SetPriority>:
2000da8c:	4b16      	ldr	r3, [pc, #88]	; (2000dae8 <HAL_NVIC_SetPriority+0x5c>)
2000da8e:	b530      	push	{r4, r5, lr}
2000da90:	68dc      	ldr	r4, [r3, #12]
2000da92:	f3c4 2402 	ubfx	r4, r4, #8, #3
2000da96:	f1c4 0507 	rsb	r5, r4, #7
2000da9a:	1d23      	adds	r3, r4, #4
2000da9c:	2d04      	cmp	r5, #4
2000da9e:	bf28      	it	cs
2000daa0:	2504      	movcs	r5, #4
2000daa2:	2b06      	cmp	r3, #6
2000daa4:	f04f 33ff 	mov.w	r3, #4294967295
2000daa8:	bf8c      	ite	hi
2000daaa:	3c03      	subhi	r4, #3
2000daac:	2400      	movls	r4, #0
2000daae:	fa03 f505 	lsl.w	r5, r3, r5
2000dab2:	ea21 0105 	bic.w	r1, r1, r5
2000dab6:	40a3      	lsls	r3, r4
2000dab8:	ea22 0203 	bic.w	r2, r2, r3
2000dabc:	40a1      	lsls	r1, r4
2000dabe:	2800      	cmp	r0, #0
2000dac0:	ea41 0302 	orr.w	r3, r1, r2
2000dac4:	bfac      	ite	ge
2000dac6:	f100 4060 	addge.w	r0, r0, #3758096384	; 0xe0000000
2000daca:	4a08      	ldrlt	r2, [pc, #32]	; (2000daec <HAL_NVIC_SetPriority+0x60>)
2000dacc:	ea4f 1303 	mov.w	r3, r3, lsl #4
2000dad0:	bfb8      	it	lt
2000dad2:	f000 000f 	andlt.w	r0, r0, #15
2000dad6:	b2db      	uxtb	r3, r3
2000dad8:	bfaa      	itet	ge
2000dada:	f500 4061 	addge.w	r0, r0, #57600	; 0xe100
2000dade:	5413      	strblt	r3, [r2, r0]
2000dae0:	f880 3300 	strbge.w	r3, [r0, #768]	; 0x300
2000dae4:	bd30      	pop	{r4, r5, pc}
2000dae6:	bf00      	nop
2000dae8:	e000ed00 	.word	0xe000ed00
2000daec:	e000ed14 	.word	0xe000ed14

2000daf0 <HAL_NVIC_EnableIRQ>:
2000daf0:	2800      	cmp	r0, #0
2000daf2:	db08      	blt.n	2000db06 <HAL_NVIC_EnableIRQ+0x16>
2000daf4:	0942      	lsrs	r2, r0, #5
2000daf6:	2301      	movs	r3, #1
2000daf8:	f000 001f 	and.w	r0, r0, #31
2000dafc:	fa03 f000 	lsl.w	r0, r3, r0
2000db00:	4b01      	ldr	r3, [pc, #4]	; (2000db08 <HAL_NVIC_EnableIRQ+0x18>)
2000db02:	f843 0022 	str.w	r0, [r3, r2, lsl #2]
2000db06:	4770      	bx	lr
2000db08:	e000e100 	.word	0xe000e100

2000db0c <HAL_GPIO_Init>:
2000db0c:	e92d 4ff7 	stmdb	sp!, {r0, r1, r2, r4, r5, r6, r7, r8, r9, sl, fp, lr}
2000db10:	f8df 81ac 	ldr.w	r8, [pc, #428]	; 2000dcc0 <HAL_GPIO_Init+0x1b4>
2000db14:	4a68      	ldr	r2, [pc, #416]	; (2000dcb8 <HAL_GPIO_Init+0x1ac>)
2000db16:	f8df 91ac 	ldr.w	r9, [pc, #428]	; 2000dcc4 <HAL_GPIO_Init+0x1b8>
2000db1a:	2300      	movs	r3, #0
2000db1c:	680d      	ldr	r5, [r1, #0]
2000db1e:	2401      	movs	r4, #1
2000db20:	409c      	lsls	r4, r3
2000db22:	ea04 0605 	and.w	r6, r4, r5
2000db26:	43ac      	bics	r4, r5
2000db28:	f040 80b0 	bne.w	2000dc8c <HAL_GPIO_Init+0x180>
2000db2c:	684c      	ldr	r4, [r1, #4]
2000db2e:	f024 0c10 	bic.w	ip, r4, #16
2000db32:	ea4f 0e43 	mov.w	lr, r3, lsl #1
2000db36:	2503      	movs	r5, #3
2000db38:	f10c 37ff 	add.w	r7, ip, #4294967295
2000db3c:	fa05 f50e 	lsl.w	r5, r5, lr
2000db40:	2f01      	cmp	r7, #1
2000db42:	ea6f 0505 	mvn.w	r5, r5
2000db46:	d811      	bhi.n	2000db6c <HAL_GPIO_Init+0x60>
2000db48:	6887      	ldr	r7, [r0, #8]
2000db4a:	ea07 0a05 	and.w	sl, r7, r5
2000db4e:	68cf      	ldr	r7, [r1, #12]
2000db50:	fa07 f70e 	lsl.w	r7, r7, lr
2000db54:	ea47 070a 	orr.w	r7, r7, sl
2000db58:	6087      	str	r7, [r0, #8]
2000db5a:	6847      	ldr	r7, [r0, #4]
2000db5c:	ea27 0a06 	bic.w	sl, r7, r6
2000db60:	f3c4 1700 	ubfx	r7, r4, #4, #1
2000db64:	409f      	lsls	r7, r3
2000db66:	ea47 070a 	orr.w	r7, r7, sl
2000db6a:	6047      	str	r7, [r0, #4]
2000db6c:	68c7      	ldr	r7, [r0, #12]
2000db6e:	ea07 0a05 	and.w	sl, r7, r5
2000db72:	688f      	ldr	r7, [r1, #8]
2000db74:	fa07 f70e 	lsl.w	r7, r7, lr
2000db78:	ea47 070a 	orr.w	r7, r7, sl
2000db7c:	f1bc 0f02 	cmp.w	ip, #2
2000db80:	60c7      	str	r7, [r0, #12]
2000db82:	d116      	bne.n	2000dbb2 <HAL_GPIO_Init+0xa6>
2000db84:	ea4f 0ad3 	mov.w	sl, r3, lsr #3
2000db88:	eb00 0a8a 	add.w	sl, r0, sl, lsl #2
2000db8c:	f003 0b07 	and.w	fp, r3, #7
2000db90:	f8da 7020 	ldr.w	r7, [sl, #32]
2000db94:	ea4f 0b8b 	mov.w	fp, fp, lsl #2
2000db98:	f04f 0c0f 	mov.w	ip, #15
2000db9c:	fa0c fc0b 	lsl.w	ip, ip, fp
2000dba0:	ea27 0c0c 	bic.w	ip, r7, ip
2000dba4:	690f      	ldr	r7, [r1, #16]
2000dba6:	fa07 f70b 	lsl.w	r7, r7, fp
2000dbaa:	ea47 070c 	orr.w	r7, r7, ip
2000dbae:	f8ca 7020 	str.w	r7, [sl, #32]
2000dbb2:	6807      	ldr	r7, [r0, #0]
2000dbb4:	403d      	ands	r5, r7
2000dbb6:	f004 0703 	and.w	r7, r4, #3
2000dbba:	fa07 fe0e 	lsl.w	lr, r7, lr
2000dbbe:	ea4e 0505 	orr.w	r5, lr, r5
2000dbc2:	6005      	str	r5, [r0, #0]
2000dbc4:	00e5      	lsls	r5, r4, #3
2000dbc6:	d561      	bpl.n	2000dc8c <HAL_GPIO_Init+0x180>
2000dbc8:	f04f 0b00 	mov.w	fp, #0
2000dbcc:	f8cd b004 	str.w	fp, [sp, #4]
2000dbd0:	f8d8 7044 	ldr.w	r7, [r8, #68]	; 0x44
2000dbd4:	4d39      	ldr	r5, [pc, #228]	; (2000dcbc <HAL_GPIO_Init+0x1b0>)
2000dbd6:	f447 4780 	orr.w	r7, r7, #16384	; 0x4000
2000dbda:	f8c8 7044 	str.w	r7, [r8, #68]	; 0x44
2000dbde:	f8d8 7044 	ldr.w	r7, [r8, #68]	; 0x44
2000dbe2:	f407 4780 	and.w	r7, r7, #16384	; 0x4000
2000dbe6:	9701      	str	r7, [sp, #4]
2000dbe8:	9f01      	ldr	r7, [sp, #4]
2000dbea:	f023 0703 	bic.w	r7, r3, #3
2000dbee:	f107 4780 	add.w	r7, r7, #1073741824	; 0x40000000
2000dbf2:	f507 379c 	add.w	r7, r7, #79872	; 0x13800
2000dbf6:	f003 0e03 	and.w	lr, r3, #3
2000dbfa:	f8d7 a008 	ldr.w	sl, [r7, #8]
2000dbfe:	ea4f 0e8e 	mov.w	lr, lr, lsl #2
2000dc02:	f04f 0c0f 	mov.w	ip, #15
2000dc06:	fa0c fc0e 	lsl.w	ip, ip, lr
2000dc0a:	42a8      	cmp	r0, r5
2000dc0c:	ea2a 0c0c 	bic.w	ip, sl, ip
2000dc10:	d043      	beq.n	2000dc9a <HAL_GPIO_Init+0x18e>
2000dc12:	f505 6580 	add.w	r5, r5, #1024	; 0x400
2000dc16:	42a8      	cmp	r0, r5
2000dc18:	d041      	beq.n	2000dc9e <HAL_GPIO_Init+0x192>
2000dc1a:	f505 6580 	add.w	r5, r5, #1024	; 0x400
2000dc1e:	42a8      	cmp	r0, r5
2000dc20:	d03f      	beq.n	2000dca2 <HAL_GPIO_Init+0x196>
2000dc22:	f505 6580 	add.w	r5, r5, #1024	; 0x400
2000dc26:	42a8      	cmp	r0, r5
2000dc28:	d03d      	beq.n	2000dca6 <HAL_GPIO_Init+0x19a>
2000dc2a:	f505 6580 	add.w	r5, r5, #1024	; 0x400
2000dc2e:	42a8      	cmp	r0, r5
2000dc30:	d03b      	beq.n	2000dcaa <HAL_GPIO_Init+0x19e>
2000dc32:	4548      	cmp	r0, r9
2000dc34:	d03b      	beq.n	2000dcae <HAL_GPIO_Init+0x1a2>
2000dc36:	f505 6500 	add.w	r5, r5, #2048	; 0x800
2000dc3a:	42a8      	cmp	r0, r5
2000dc3c:	d039      	beq.n	2000dcb2 <HAL_GPIO_Init+0x1a6>
2000dc3e:	f505 6580 	add.w	r5, r5, #1024	; 0x400
2000dc42:	42a8      	cmp	r0, r5
2000dc44:	bf0c      	ite	eq
2000dc46:	2507      	moveq	r5, #7
2000dc48:	2508      	movne	r5, #8
2000dc4a:	fa05 f50e 	lsl.w	r5, r5, lr
2000dc4e:	ea45 050c 	orr.w	r5, r5, ip
2000dc52:	60bd      	str	r5, [r7, #8]
2000dc54:	6815      	ldr	r5, [r2, #0]
2000dc56:	43f7      	mvns	r7, r6
2000dc58:	f414 3f80 	tst.w	r4, #65536	; 0x10000
2000dc5c:	bf0c      	ite	eq
2000dc5e:	403d      	andeq	r5, r7
2000dc60:	4335      	orrne	r5, r6
2000dc62:	6015      	str	r5, [r2, #0]
2000dc64:	6855      	ldr	r5, [r2, #4]
2000dc66:	f414 3f00 	tst.w	r4, #131072	; 0x20000
2000dc6a:	bf0c      	ite	eq
2000dc6c:	403d      	andeq	r5, r7
2000dc6e:	4335      	orrne	r5, r6
2000dc70:	6055      	str	r5, [r2, #4]
2000dc72:	6895      	ldr	r5, [r2, #8]
2000dc74:	f414 1f80 	tst.w	r4, #1048576	; 0x100000
2000dc78:	bf0c      	ite	eq
2000dc7a:	403d      	andeq	r5, r7
2000dc7c:	4335      	orrne	r5, r6
2000dc7e:	6095      	str	r5, [r2, #8]
2000dc80:	68d5      	ldr	r5, [r2, #12]
2000dc82:	02a4      	lsls	r4, r4, #10
2000dc84:	bf54      	ite	pl
2000dc86:	403d      	andpl	r5, r7
2000dc88:	4335      	orrmi	r5, r6
2000dc8a:	60d5      	str	r5, [r2, #12]
2000dc8c:	3301      	adds	r3, #1
2000dc8e:	2b10      	cmp	r3, #16
2000dc90:	f47f af44 	bne.w	2000db1c <HAL_GPIO_Init+0x10>
2000dc94:	b003      	add	sp, #12
2000dc96:	e8bd 8ff0 	ldmia.w	sp!, {r4, r5, r6, r7, r8, r9, sl, fp, pc}
2000dc9a:	465d      	mov	r5, fp
2000dc9c:	e7d5      	b.n	2000dc4a <HAL_GPIO_Init+0x13e>
2000dc9e:	2501      	movs	r5, #1
2000dca0:	e7d3      	b.n	2000dc4a <HAL_GPIO_Init+0x13e>
2000dca2:	2502      	movs	r5, #2
2000dca4:	e7d1      	b.n	2000dc4a <HAL_GPIO_Init+0x13e>
2000dca6:	2503      	movs	r5, #3
2000dca8:	e7cf      	b.n	2000dc4a <HAL_GPIO_Init+0x13e>
2000dcaa:	2504      	movs	r5, #4
2000dcac:	e7cd      	b.n	2000dc4a <HAL_GPIO_Init+0x13e>
2000dcae:	2505      	movs	r5, #5
2000dcb0:	e7cb      	b.n	2000dc4a <HAL_GPIO_Init+0x13e>
2000dcb2:	2506      	movs	r5, #6
2000dcb4:	e7c9      	b.n	2000dc4a <HAL_GPIO_Init+0x13e>
2000dcb6:	bf00      	nop
2000dcb8:	40013c00 	.word	0x40013c00
2000dcbc:	40020000 	.word	0x40020000
2000dcc0:	40023800 	.word	0x40023800
2000dcc4:	40021400 	.word	0x40021400

2000dcc8 <HAL_GPIO_ReadPin>:
2000dcc8:	6903      	ldr	r3, [r0, #16]
2000dcca:	4219      	tst	r1, r3
2000dccc:	bf14      	ite	ne
2000dcce:	2001      	movne	r0, #1
2000dcd0:	2000      	moveq	r0, #0
2000dcd2:	4770      	bx	lr

2000dcd4 <HAL_GPIO_WritePin>:
2000dcd4:	b10a      	cbz	r2, 2000dcda <HAL_GPIO_WritePin+0x6>
2000dcd6:	6181      	str	r1, [r0, #24]
2000dcd8:	4770      	bx	lr
2000dcda:	0409      	lsls	r1, r1, #16
2000dcdc:	e7fb      	b.n	2000dcd6 <HAL_GPIO_WritePin+0x2>

2000dcde <HAL_GPIO_TogglePin>:
2000dcde:	6943      	ldr	r3, [r0, #20]
2000dce0:	ea31 0303 	bics.w	r3, r1, r3
2000dce4:	bf08      	it	eq
2000dce6:	0409      	lsleq	r1, r1, #16
2000dce8:	6181      	str	r1, [r0, #24]
2000dcea:	4770      	bx	lr

2000dcec <HAL_IWDG_Init>:
2000dcec:	b538      	push	{r3, r4, r5, lr}
2000dcee:	4604      	mov	r4, r0
2000dcf0:	b1d8      	cbz	r0, 2000dd2a <HAL_IWDG_Init+0x3e>
2000dcf2:	6803      	ldr	r3, [r0, #0]
2000dcf4:	f64c 42cc 	movw	r2, #52428	; 0xcccc
2000dcf8:	601a      	str	r2, [r3, #0]
2000dcfa:	f245 5255 	movw	r2, #21845	; 0x5555
2000dcfe:	601a      	str	r2, [r3, #0]
2000dd00:	6842      	ldr	r2, [r0, #4]
2000dd02:	605a      	str	r2, [r3, #4]
2000dd04:	6882      	ldr	r2, [r0, #8]
2000dd06:	609a      	str	r2, [r3, #8]
2000dd08:	f7ff fea8 	bl	2000da5c <HAL_GetTick>
2000dd0c:	4605      	mov	r5, r0
2000dd0e:	6822      	ldr	r2, [r4, #0]
2000dd10:	68d0      	ldr	r0, [r2, #12]
2000dd12:	b918      	cbnz	r0, 2000dd1c <HAL_IWDG_Init+0x30>
2000dd14:	f64a 21aa 	movw	r1, #43690	; 0xaaaa
2000dd18:	6011      	str	r1, [r2, #0]
2000dd1a:	bd38      	pop	{r3, r4, r5, pc}
2000dd1c:	f7ff fe9e 	bl	2000da5c <HAL_GetTick>
2000dd20:	1b40      	subs	r0, r0, r5
2000dd22:	2830      	cmp	r0, #48	; 0x30
2000dd24:	d9f3      	bls.n	2000dd0e <HAL_IWDG_Init+0x22>
2000dd26:	2003      	movs	r0, #3
2000dd28:	e7f7      	b.n	2000dd1a <HAL_IWDG_Init+0x2e>
2000dd2a:	2001      	movs	r0, #1
2000dd2c:	e7f5      	b.n	2000dd1a <HAL_IWDG_Init+0x2e>
	...

2000dd30 <HAL_RCC_OscConfig>:
2000dd30:	e92d 41f3 	stmdb	sp!, {r0, r1, r4, r5, r6, r7, r8, lr}
2000dd34:	4604      	mov	r4, r0
2000dd36:	b340      	cbz	r0, 2000dd8a <HAL_RCC_OscConfig+0x5a>
2000dd38:	6803      	ldr	r3, [r0, #0]
2000dd3a:	07dd      	lsls	r5, r3, #31
2000dd3c:	d410      	bmi.n	2000dd60 <HAL_RCC_OscConfig+0x30>
2000dd3e:	6823      	ldr	r3, [r4, #0]
2000dd40:	0798      	lsls	r0, r3, #30
2000dd42:	d45e      	bmi.n	2000de02 <HAL_RCC_OscConfig+0xd2>
2000dd44:	6823      	ldr	r3, [r4, #0]
2000dd46:	071a      	lsls	r2, r3, #28
2000dd48:	f100 80a0 	bmi.w	2000de8c <HAL_RCC_OscConfig+0x15c>
2000dd4c:	6823      	ldr	r3, [r4, #0]
2000dd4e:	075b      	lsls	r3, r3, #29
2000dd50:	f100 80be 	bmi.w	2000ded0 <HAL_RCC_OscConfig+0x1a0>
2000dd54:	69a0      	ldr	r0, [r4, #24]
2000dd56:	2800      	cmp	r0, #0
2000dd58:	f040 811f 	bne.w	2000df9a <HAL_RCC_OscConfig+0x26a>
2000dd5c:	2000      	movs	r0, #0
2000dd5e:	e02b      	b.n	2000ddb8 <HAL_RCC_OscConfig+0x88>
2000dd60:	4ba6      	ldr	r3, [pc, #664]	; (2000dffc <HAL_RCC_OscConfig+0x2cc>)
2000dd62:	689a      	ldr	r2, [r3, #8]
2000dd64:	f002 020c 	and.w	r2, r2, #12
2000dd68:	2a04      	cmp	r2, #4
2000dd6a:	d007      	beq.n	2000dd7c <HAL_RCC_OscConfig+0x4c>
2000dd6c:	689a      	ldr	r2, [r3, #8]
2000dd6e:	f002 020c 	and.w	r2, r2, #12
2000dd72:	2a08      	cmp	r2, #8
2000dd74:	d10b      	bne.n	2000dd8e <HAL_RCC_OscConfig+0x5e>
2000dd76:	685a      	ldr	r2, [r3, #4]
2000dd78:	0251      	lsls	r1, r2, #9
2000dd7a:	d508      	bpl.n	2000dd8e <HAL_RCC_OscConfig+0x5e>
2000dd7c:	4b9f      	ldr	r3, [pc, #636]	; (2000dffc <HAL_RCC_OscConfig+0x2cc>)
2000dd7e:	681b      	ldr	r3, [r3, #0]
2000dd80:	039a      	lsls	r2, r3, #14
2000dd82:	d5dc      	bpl.n	2000dd3e <HAL_RCC_OscConfig+0xe>
2000dd84:	6863      	ldr	r3, [r4, #4]
2000dd86:	2b00      	cmp	r3, #0
2000dd88:	d1d9      	bne.n	2000dd3e <HAL_RCC_OscConfig+0xe>
2000dd8a:	2001      	movs	r0, #1
2000dd8c:	e014      	b.n	2000ddb8 <HAL_RCC_OscConfig+0x88>
2000dd8e:	6862      	ldr	r2, [r4, #4]
2000dd90:	f5b2 3f80 	cmp.w	r2, #65536	; 0x10000
2000dd94:	d113      	bne.n	2000ddbe <HAL_RCC_OscConfig+0x8e>
2000dd96:	681a      	ldr	r2, [r3, #0]
2000dd98:	f442 3280 	orr.w	r2, r2, #65536	; 0x10000
2000dd9c:	601a      	str	r2, [r3, #0]
2000dd9e:	f7ff fe5d 	bl	2000da5c <HAL_GetTick>
2000dda2:	4e96      	ldr	r6, [pc, #600]	; (2000dffc <HAL_RCC_OscConfig+0x2cc>)
2000dda4:	4605      	mov	r5, r0
2000dda6:	6833      	ldr	r3, [r6, #0]
2000dda8:	039b      	lsls	r3, r3, #14
2000ddaa:	d4c8      	bmi.n	2000dd3e <HAL_RCC_OscConfig+0xe>
2000ddac:	f7ff fe56 	bl	2000da5c <HAL_GetTick>
2000ddb0:	1b40      	subs	r0, r0, r5
2000ddb2:	2864      	cmp	r0, #100	; 0x64
2000ddb4:	d9f7      	bls.n	2000dda6 <HAL_RCC_OscConfig+0x76>
2000ddb6:	2003      	movs	r0, #3
2000ddb8:	b002      	add	sp, #8
2000ddba:	e8bd 81f0 	ldmia.w	sp!, {r4, r5, r6, r7, r8, pc}
2000ddbe:	4d8f      	ldr	r5, [pc, #572]	; (2000dffc <HAL_RCC_OscConfig+0x2cc>)
2000ddc0:	f5b2 2fa0 	cmp.w	r2, #327680	; 0x50000
2000ddc4:	682b      	ldr	r3, [r5, #0]
2000ddc6:	d107      	bne.n	2000ddd8 <HAL_RCC_OscConfig+0xa8>
2000ddc8:	f443 2380 	orr.w	r3, r3, #262144	; 0x40000
2000ddcc:	602b      	str	r3, [r5, #0]
2000ddce:	682b      	ldr	r3, [r5, #0]
2000ddd0:	f443 3380 	orr.w	r3, r3, #65536	; 0x10000
2000ddd4:	602b      	str	r3, [r5, #0]
2000ddd6:	e7e2      	b.n	2000dd9e <HAL_RCC_OscConfig+0x6e>
2000ddd8:	f423 3380 	bic.w	r3, r3, #65536	; 0x10000
2000dddc:	602b      	str	r3, [r5, #0]
2000ddde:	682b      	ldr	r3, [r5, #0]
2000dde0:	f423 2380 	bic.w	r3, r3, #262144	; 0x40000
2000dde4:	602b      	str	r3, [r5, #0]
2000dde6:	2a00      	cmp	r2, #0
2000dde8:	d1d9      	bne.n	2000dd9e <HAL_RCC_OscConfig+0x6e>
2000ddea:	f7ff fe37 	bl	2000da5c <HAL_GetTick>
2000ddee:	4606      	mov	r6, r0
2000ddf0:	682b      	ldr	r3, [r5, #0]
2000ddf2:	039f      	lsls	r7, r3, #14
2000ddf4:	d5a3      	bpl.n	2000dd3e <HAL_RCC_OscConfig+0xe>
2000ddf6:	f7ff fe31 	bl	2000da5c <HAL_GetTick>
2000ddfa:	1b80      	subs	r0, r0, r6
2000ddfc:	2864      	cmp	r0, #100	; 0x64
2000ddfe:	d9f7      	bls.n	2000ddf0 <HAL_RCC_OscConfig+0xc0>
2000de00:	e7d9      	b.n	2000ddb6 <HAL_RCC_OscConfig+0x86>
2000de02:	4b7e      	ldr	r3, [pc, #504]	; (2000dffc <HAL_RCC_OscConfig+0x2cc>)
2000de04:	689a      	ldr	r2, [r3, #8]
2000de06:	f012 0f0c 	tst.w	r2, #12
2000de0a:	d007      	beq.n	2000de1c <HAL_RCC_OscConfig+0xec>
2000de0c:	689a      	ldr	r2, [r3, #8]
2000de0e:	f002 020c 	and.w	r2, r2, #12
2000de12:	2a08      	cmp	r2, #8
2000de14:	d111      	bne.n	2000de3a <HAL_RCC_OscConfig+0x10a>
2000de16:	685b      	ldr	r3, [r3, #4]
2000de18:	025e      	lsls	r6, r3, #9
2000de1a:	d40e      	bmi.n	2000de3a <HAL_RCC_OscConfig+0x10a>
2000de1c:	4b77      	ldr	r3, [pc, #476]	; (2000dffc <HAL_RCC_OscConfig+0x2cc>)
2000de1e:	681a      	ldr	r2, [r3, #0]
2000de20:	0795      	lsls	r5, r2, #30
2000de22:	d502      	bpl.n	2000de2a <HAL_RCC_OscConfig+0xfa>
2000de24:	68e2      	ldr	r2, [r4, #12]
2000de26:	2a01      	cmp	r2, #1
2000de28:	d1af      	bne.n	2000dd8a <HAL_RCC_OscConfig+0x5a>
2000de2a:	681a      	ldr	r2, [r3, #0]
2000de2c:	6921      	ldr	r1, [r4, #16]
2000de2e:	f022 02f8 	bic.w	r2, r2, #248	; 0xf8
2000de32:	ea42 02c1 	orr.w	r2, r2, r1, lsl #3
2000de36:	601a      	str	r2, [r3, #0]
2000de38:	e784      	b.n	2000dd44 <HAL_RCC_OscConfig+0x14>
2000de3a:	68e2      	ldr	r2, [r4, #12]
2000de3c:	4b70      	ldr	r3, [pc, #448]	; (2000e000 <HAL_RCC_OscConfig+0x2d0>)
2000de3e:	b1b2      	cbz	r2, 2000de6e <HAL_RCC_OscConfig+0x13e>
2000de40:	2201      	movs	r2, #1
2000de42:	601a      	str	r2, [r3, #0]
2000de44:	f7ff fe0a 	bl	2000da5c <HAL_GetTick>
2000de48:	4d6c      	ldr	r5, [pc, #432]	; (2000dffc <HAL_RCC_OscConfig+0x2cc>)
2000de4a:	4606      	mov	r6, r0
2000de4c:	682b      	ldr	r3, [r5, #0]
2000de4e:	0798      	lsls	r0, r3, #30
2000de50:	d507      	bpl.n	2000de62 <HAL_RCC_OscConfig+0x132>
2000de52:	682b      	ldr	r3, [r5, #0]
2000de54:	6922      	ldr	r2, [r4, #16]
2000de56:	f023 03f8 	bic.w	r3, r3, #248	; 0xf8
2000de5a:	ea43 03c2 	orr.w	r3, r3, r2, lsl #3
2000de5e:	602b      	str	r3, [r5, #0]
2000de60:	e770      	b.n	2000dd44 <HAL_RCC_OscConfig+0x14>
2000de62:	f7ff fdfb 	bl	2000da5c <HAL_GetTick>
2000de66:	1b80      	subs	r0, r0, r6
2000de68:	2802      	cmp	r0, #2
2000de6a:	d9ef      	bls.n	2000de4c <HAL_RCC_OscConfig+0x11c>
2000de6c:	e7a3      	b.n	2000ddb6 <HAL_RCC_OscConfig+0x86>
2000de6e:	601a      	str	r2, [r3, #0]
2000de70:	f7ff fdf4 	bl	2000da5c <HAL_GetTick>
2000de74:	4e61      	ldr	r6, [pc, #388]	; (2000dffc <HAL_RCC_OscConfig+0x2cc>)
2000de76:	4605      	mov	r5, r0
2000de78:	6833      	ldr	r3, [r6, #0]
2000de7a:	0799      	lsls	r1, r3, #30
2000de7c:	f57f af62 	bpl.w	2000dd44 <HAL_RCC_OscConfig+0x14>
2000de80:	f7ff fdec 	bl	2000da5c <HAL_GetTick>
2000de84:	1b40      	subs	r0, r0, r5
2000de86:	2802      	cmp	r0, #2
2000de88:	d9f6      	bls.n	2000de78 <HAL_RCC_OscConfig+0x148>
2000de8a:	e794      	b.n	2000ddb6 <HAL_RCC_OscConfig+0x86>
2000de8c:	6962      	ldr	r2, [r4, #20]
2000de8e:	4b5d      	ldr	r3, [pc, #372]	; (2000e004 <HAL_RCC_OscConfig+0x2d4>)
2000de90:	b17a      	cbz	r2, 2000deb2 <HAL_RCC_OscConfig+0x182>
2000de92:	2201      	movs	r2, #1
2000de94:	601a      	str	r2, [r3, #0]
2000de96:	f7ff fde1 	bl	2000da5c <HAL_GetTick>
2000de9a:	4e58      	ldr	r6, [pc, #352]	; (2000dffc <HAL_RCC_OscConfig+0x2cc>)
2000de9c:	4605      	mov	r5, r0
2000de9e:	6f73      	ldr	r3, [r6, #116]	; 0x74
2000dea0:	079f      	lsls	r7, r3, #30
2000dea2:	f53f af53 	bmi.w	2000dd4c <HAL_RCC_OscConfig+0x1c>
2000dea6:	f7ff fdd9 	bl	2000da5c <HAL_GetTick>
2000deaa:	1b40      	subs	r0, r0, r5
2000deac:	2802      	cmp	r0, #2
2000deae:	d9f6      	bls.n	2000de9e <HAL_RCC_OscConfig+0x16e>
2000deb0:	e781      	b.n	2000ddb6 <HAL_RCC_OscConfig+0x86>
2000deb2:	601a      	str	r2, [r3, #0]
2000deb4:	f7ff fdd2 	bl	2000da5c <HAL_GetTick>
2000deb8:	4e50      	ldr	r6, [pc, #320]	; (2000dffc <HAL_RCC_OscConfig+0x2cc>)
2000deba:	4605      	mov	r5, r0
2000debc:	6f73      	ldr	r3, [r6, #116]	; 0x74
2000debe:	0798      	lsls	r0, r3, #30
2000dec0:	f57f af44 	bpl.w	2000dd4c <HAL_RCC_OscConfig+0x1c>
2000dec4:	f7ff fdca 	bl	2000da5c <HAL_GetTick>
2000dec8:	1b40      	subs	r0, r0, r5
2000deca:	2802      	cmp	r0, #2
2000decc:	d9f6      	bls.n	2000debc <HAL_RCC_OscConfig+0x18c>
2000dece:	e772      	b.n	2000ddb6 <HAL_RCC_OscConfig+0x86>
2000ded0:	4b4a      	ldr	r3, [pc, #296]	; (2000dffc <HAL_RCC_OscConfig+0x2cc>)
2000ded2:	6c1a      	ldr	r2, [r3, #64]	; 0x40
2000ded4:	f012 5280 	ands.w	r2, r2, #268435456	; 0x10000000
2000ded8:	d128      	bne.n	2000df2c <HAL_RCC_OscConfig+0x1fc>
2000deda:	9201      	str	r2, [sp, #4]
2000dedc:	6c1a      	ldr	r2, [r3, #64]	; 0x40
2000dede:	f042 5280 	orr.w	r2, r2, #268435456	; 0x10000000
2000dee2:	641a      	str	r2, [r3, #64]	; 0x40
2000dee4:	6c1b      	ldr	r3, [r3, #64]	; 0x40
2000dee6:	f003 5380 	and.w	r3, r3, #268435456	; 0x10000000
2000deea:	9301      	str	r3, [sp, #4]
2000deec:	9b01      	ldr	r3, [sp, #4]
2000deee:	2701      	movs	r7, #1
2000def0:	4d45      	ldr	r5, [pc, #276]	; (2000e008 <HAL_RCC_OscConfig+0x2d8>)
2000def2:	682b      	ldr	r3, [r5, #0]
2000def4:	05d9      	lsls	r1, r3, #23
2000def6:	d51b      	bpl.n	2000df30 <HAL_RCC_OscConfig+0x200>
2000def8:	68a3      	ldr	r3, [r4, #8]
2000defa:	4d40      	ldr	r5, [pc, #256]	; (2000dffc <HAL_RCC_OscConfig+0x2cc>)
2000defc:	2b01      	cmp	r3, #1
2000defe:	d127      	bne.n	2000df50 <HAL_RCC_OscConfig+0x220>
2000df00:	6f2b      	ldr	r3, [r5, #112]	; 0x70
2000df02:	f043 0301 	orr.w	r3, r3, #1
2000df06:	672b      	str	r3, [r5, #112]	; 0x70
2000df08:	f7ff fda8 	bl	2000da5c <HAL_GetTick>
2000df0c:	4e3b      	ldr	r6, [pc, #236]	; (2000dffc <HAL_RCC_OscConfig+0x2cc>)
2000df0e:	4605      	mov	r5, r0
2000df10:	f241 3888 	movw	r8, #5000	; 0x1388
2000df14:	6f33      	ldr	r3, [r6, #112]	; 0x70
2000df16:	079b      	lsls	r3, r3, #30
2000df18:	d539      	bpl.n	2000df8e <HAL_RCC_OscConfig+0x25e>
2000df1a:	2f00      	cmp	r7, #0
2000df1c:	f43f af1a 	beq.w	2000dd54 <HAL_RCC_OscConfig+0x24>
2000df20:	4a36      	ldr	r2, [pc, #216]	; (2000dffc <HAL_RCC_OscConfig+0x2cc>)
2000df22:	6c13      	ldr	r3, [r2, #64]	; 0x40
2000df24:	f023 5380 	bic.w	r3, r3, #268435456	; 0x10000000
2000df28:	6413      	str	r3, [r2, #64]	; 0x40
2000df2a:	e713      	b.n	2000dd54 <HAL_RCC_OscConfig+0x24>
2000df2c:	2700      	movs	r7, #0
2000df2e:	e7df      	b.n	2000def0 <HAL_RCC_OscConfig+0x1c0>
2000df30:	682b      	ldr	r3, [r5, #0]
2000df32:	f443 7380 	orr.w	r3, r3, #256	; 0x100
2000df36:	602b      	str	r3, [r5, #0]
2000df38:	f7ff fd90 	bl	2000da5c <HAL_GetTick>
2000df3c:	4606      	mov	r6, r0
2000df3e:	682b      	ldr	r3, [r5, #0]
2000df40:	05da      	lsls	r2, r3, #23
2000df42:	d4d9      	bmi.n	2000def8 <HAL_RCC_OscConfig+0x1c8>
2000df44:	f7ff fd8a 	bl	2000da5c <HAL_GetTick>
2000df48:	1b80      	subs	r0, r0, r6
2000df4a:	2802      	cmp	r0, #2
2000df4c:	d9f7      	bls.n	2000df3e <HAL_RCC_OscConfig+0x20e>
2000df4e:	e732      	b.n	2000ddb6 <HAL_RCC_OscConfig+0x86>
2000df50:	2b05      	cmp	r3, #5
2000df52:	d104      	bne.n	2000df5e <HAL_RCC_OscConfig+0x22e>
2000df54:	6f2b      	ldr	r3, [r5, #112]	; 0x70
2000df56:	f043 0304 	orr.w	r3, r3, #4
2000df5a:	672b      	str	r3, [r5, #112]	; 0x70
2000df5c:	e7d0      	b.n	2000df00 <HAL_RCC_OscConfig+0x1d0>
2000df5e:	6f2a      	ldr	r2, [r5, #112]	; 0x70
2000df60:	f022 0201 	bic.w	r2, r2, #1
2000df64:	672a      	str	r2, [r5, #112]	; 0x70
2000df66:	6f2a      	ldr	r2, [r5, #112]	; 0x70
2000df68:	f022 0204 	bic.w	r2, r2, #4
2000df6c:	672a      	str	r2, [r5, #112]	; 0x70
2000df6e:	2b00      	cmp	r3, #0
2000df70:	d1ca      	bne.n	2000df08 <HAL_RCC_OscConfig+0x1d8>
2000df72:	f7ff fd73 	bl	2000da5c <HAL_GetTick>
2000df76:	f241 3888 	movw	r8, #5000	; 0x1388
2000df7a:	4606      	mov	r6, r0
2000df7c:	6f2b      	ldr	r3, [r5, #112]	; 0x70
2000df7e:	0798      	lsls	r0, r3, #30
2000df80:	d5cb      	bpl.n	2000df1a <HAL_RCC_OscConfig+0x1ea>
2000df82:	f7ff fd6b 	bl	2000da5c <HAL_GetTick>
2000df86:	1b80      	subs	r0, r0, r6
2000df88:	4540      	cmp	r0, r8
2000df8a:	d9f7      	bls.n	2000df7c <HAL_RCC_OscConfig+0x24c>
2000df8c:	e713      	b.n	2000ddb6 <HAL_RCC_OscConfig+0x86>
2000df8e:	f7ff fd65 	bl	2000da5c <HAL_GetTick>
2000df92:	1b40      	subs	r0, r0, r5
2000df94:	4540      	cmp	r0, r8
2000df96:	d9bd      	bls.n	2000df14 <HAL_RCC_OscConfig+0x1e4>
2000df98:	e70d      	b.n	2000ddb6 <HAL_RCC_OscConfig+0x86>
2000df9a:	4d18      	ldr	r5, [pc, #96]	; (2000dffc <HAL_RCC_OscConfig+0x2cc>)
2000df9c:	68ab      	ldr	r3, [r5, #8]
2000df9e:	f003 030c 	and.w	r3, r3, #12
2000dfa2:	2b08      	cmp	r3, #8
2000dfa4:	d047      	beq.n	2000e036 <HAL_RCC_OscConfig+0x306>
2000dfa6:	4e19      	ldr	r6, [pc, #100]	; (2000e00c <HAL_RCC_OscConfig+0x2dc>)
2000dfa8:	2300      	movs	r3, #0
2000dfaa:	2802      	cmp	r0, #2
2000dfac:	6033      	str	r3, [r6, #0]
2000dfae:	d135      	bne.n	2000e01c <HAL_RCC_OscConfig+0x2ec>
2000dfb0:	f7ff fd54 	bl	2000da5c <HAL_GetTick>
2000dfb4:	4607      	mov	r7, r0
2000dfb6:	682b      	ldr	r3, [r5, #0]
2000dfb8:	0199      	lsls	r1, r3, #6
2000dfba:	d429      	bmi.n	2000e010 <HAL_RCC_OscConfig+0x2e0>
2000dfbc:	e9d4 3207 	ldrd	r3, r2, [r4, #28]
2000dfc0:	4313      	orrs	r3, r2
2000dfc2:	6a62      	ldr	r2, [r4, #36]	; 0x24
2000dfc4:	ea43 1382 	orr.w	r3, r3, r2, lsl #6
2000dfc8:	6ae2      	ldr	r2, [r4, #44]	; 0x2c
2000dfca:	ea43 6302 	orr.w	r3, r3, r2, lsl #24
2000dfce:	6aa2      	ldr	r2, [r4, #40]	; 0x28
2000dfd0:	0852      	lsrs	r2, r2, #1
2000dfd2:	3a01      	subs	r2, #1
2000dfd4:	ea43 4302 	orr.w	r3, r3, r2, lsl #16
2000dfd8:	606b      	str	r3, [r5, #4]
2000dfda:	2301      	movs	r3, #1
2000dfdc:	6033      	str	r3, [r6, #0]
2000dfde:	f7ff fd3d 	bl	2000da5c <HAL_GetTick>
2000dfe2:	4d06      	ldr	r5, [pc, #24]	; (2000dffc <HAL_RCC_OscConfig+0x2cc>)
2000dfe4:	4604      	mov	r4, r0
2000dfe6:	682b      	ldr	r3, [r5, #0]
2000dfe8:	019a      	lsls	r2, r3, #6
2000dfea:	f53f aeb7 	bmi.w	2000dd5c <HAL_RCC_OscConfig+0x2c>
2000dfee:	f7ff fd35 	bl	2000da5c <HAL_GetTick>
2000dff2:	1b00      	subs	r0, r0, r4
2000dff4:	2802      	cmp	r0, #2
2000dff6:	d9f6      	bls.n	2000dfe6 <HAL_RCC_OscConfig+0x2b6>
2000dff8:	e6dd      	b.n	2000ddb6 <HAL_RCC_OscConfig+0x86>
2000dffa:	bf00      	nop
2000dffc:	40023800 	.word	0x40023800
2000e000:	42470000 	.word	0x42470000
2000e004:	42470e80 	.word	0x42470e80
2000e008:	40007000 	.word	0x40007000
2000e00c:	42470060 	.word	0x42470060
2000e010:	f7ff fd24 	bl	2000da5c <HAL_GetTick>
2000e014:	1bc0      	subs	r0, r0, r7
2000e016:	2802      	cmp	r0, #2
2000e018:	d9cd      	bls.n	2000dfb6 <HAL_RCC_OscConfig+0x286>
2000e01a:	e6cc      	b.n	2000ddb6 <HAL_RCC_OscConfig+0x86>
2000e01c:	f7ff fd1e 	bl	2000da5c <HAL_GetTick>
2000e020:	4604      	mov	r4, r0
2000e022:	682b      	ldr	r3, [r5, #0]
2000e024:	019b      	lsls	r3, r3, #6
2000e026:	f57f ae99 	bpl.w	2000dd5c <HAL_RCC_OscConfig+0x2c>
2000e02a:	f7ff fd17 	bl	2000da5c <HAL_GetTick>
2000e02e:	1b00      	subs	r0, r0, r4
2000e030:	2802      	cmp	r0, #2
2000e032:	d9f6      	bls.n	2000e022 <HAL_RCC_OscConfig+0x2f2>
2000e034:	e6bf      	b.n	2000ddb6 <HAL_RCC_OscConfig+0x86>
2000e036:	2801      	cmp	r0, #1
2000e038:	f43f aebe 	beq.w	2000ddb8 <HAL_RCC_OscConfig+0x88>
2000e03c:	686b      	ldr	r3, [r5, #4]
2000e03e:	69e2      	ldr	r2, [r4, #28]
2000e040:	f403 0180 	and.w	r1, r3, #4194304	; 0x400000
2000e044:	4291      	cmp	r1, r2
2000e046:	f47f aea0 	bne.w	2000dd8a <HAL_RCC_OscConfig+0x5a>
2000e04a:	6a21      	ldr	r1, [r4, #32]
2000e04c:	f003 023f 	and.w	r2, r3, #63	; 0x3f
2000e050:	428a      	cmp	r2, r1
2000e052:	f47f ae9a 	bne.w	2000dd8a <HAL_RCC_OscConfig+0x5a>
2000e056:	6a61      	ldr	r1, [r4, #36]	; 0x24
2000e058:	f647 72c0 	movw	r2, #32704	; 0x7fc0
2000e05c:	401a      	ands	r2, r3
2000e05e:	428a      	cmp	r2, r1
2000e060:	f47f ae93 	bne.w	2000dd8a <HAL_RCC_OscConfig+0x5a>
2000e064:	6aa1      	ldr	r1, [r4, #40]	; 0x28
2000e066:	f403 3240 	and.w	r2, r3, #196608	; 0x30000
2000e06a:	428a      	cmp	r2, r1
2000e06c:	f47f ae8d 	bne.w	2000dd8a <HAL_RCC_OscConfig+0x5a>
2000e070:	6ae2      	ldr	r2, [r4, #44]	; 0x2c
2000e072:	f003 6370 	and.w	r3, r3, #251658240	; 0xf000000
2000e076:	4293      	cmp	r3, r2
2000e078:	f43f ae70 	beq.w	2000dd5c <HAL_RCC_OscConfig+0x2c>
2000e07c:	e685      	b.n	2000dd8a <HAL_RCC_OscConfig+0x5a>
2000e07e:	bf00      	nop

2000e080 <HAL_RCC_GetSysClockFreq>:
2000e080:	4913      	ldr	r1, [pc, #76]	; (2000e0d0 <HAL_RCC_GetSysClockFreq+0x50>)
2000e082:	b508      	push	{r3, lr}
2000e084:	688b      	ldr	r3, [r1, #8]
2000e086:	f003 030c 	and.w	r3, r3, #12
2000e08a:	2b04      	cmp	r3, #4
2000e08c:	d01c      	beq.n	2000e0c8 <HAL_RCC_GetSysClockFreq+0x48>
2000e08e:	2b08      	cmp	r3, #8
2000e090:	d11c      	bne.n	2000e0cc <HAL_RCC_GetSysClockFreq+0x4c>
2000e092:	684a      	ldr	r2, [r1, #4]
2000e094:	684b      	ldr	r3, [r1, #4]
2000e096:	6849      	ldr	r1, [r1, #4]
2000e098:	f413 0380 	ands.w	r3, r3, #4194304	; 0x400000
2000e09c:	bf14      	ite	ne
2000e09e:	480d      	ldrne	r0, [pc, #52]	; (2000e0d4 <HAL_RCC_GetSysClockFreq+0x54>)
2000e0a0:	480d      	ldreq	r0, [pc, #52]	; (2000e0d8 <HAL_RCC_GetSysClockFreq+0x58>)
2000e0a2:	f3c1 1188 	ubfx	r1, r1, #6, #9
2000e0a6:	bf18      	it	ne
2000e0a8:	2300      	movne	r3, #0
2000e0aa:	f002 023f 	and.w	r2, r2, #63	; 0x3f
2000e0ae:	fba1 0100 	umull	r0, r1, r1, r0
2000e0b2:	f7ff f88d 	bl	2000d1d0 <__aeabi_uldivmod>
2000e0b6:	4b06      	ldr	r3, [pc, #24]	; (2000e0d0 <HAL_RCC_GetSysClockFreq+0x50>)
2000e0b8:	685b      	ldr	r3, [r3, #4]
2000e0ba:	f3c3 4301 	ubfx	r3, r3, #16, #2
2000e0be:	3301      	adds	r3, #1
2000e0c0:	005b      	lsls	r3, r3, #1
2000e0c2:	fbb0 f0f3 	udiv	r0, r0, r3
2000e0c6:	bd08      	pop	{r3, pc}
2000e0c8:	4802      	ldr	r0, [pc, #8]	; (2000e0d4 <HAL_RCC_GetSysClockFreq+0x54>)
2000e0ca:	e7fc      	b.n	2000e0c6 <HAL_RCC_GetSysClockFreq+0x46>
2000e0cc:	4802      	ldr	r0, [pc, #8]	; (2000e0d8 <HAL_RCC_GetSysClockFreq+0x58>)
2000e0ce:	e7fa      	b.n	2000e0c6 <HAL_RCC_GetSysClockFreq+0x46>
2000e0d0:	40023800 	.word	0x40023800
2000e0d4:	017d7840 	.word	0x017d7840
2000e0d8:	00f42400 	.word	0x00f42400

2000e0dc <HAL_RCC_ClockConfig>:
2000e0dc:	e92d 41f0 	stmdb	sp!, {r4, r5, r6, r7, r8, lr}
2000e0e0:	460d      	mov	r5, r1
2000e0e2:	4604      	mov	r4, r0
2000e0e4:	b910      	cbnz	r0, 2000e0ec <HAL_RCC_ClockConfig+0x10>
2000e0e6:	2001      	movs	r0, #1
2000e0e8:	e8bd 81f0 	ldmia.w	sp!, {r4, r5, r6, r7, r8, pc}
2000e0ec:	4b44      	ldr	r3, [pc, #272]	; (2000e200 <HAL_RCC_ClockConfig+0x124>)
2000e0ee:	681a      	ldr	r2, [r3, #0]
2000e0f0:	f002 020f 	and.w	r2, r2, #15
2000e0f4:	428a      	cmp	r2, r1
2000e0f6:	d328      	bcc.n	2000e14a <HAL_RCC_ClockConfig+0x6e>
2000e0f8:	6822      	ldr	r2, [r4, #0]
2000e0fa:	0797      	lsls	r7, r2, #30
2000e0fc:	d42d      	bmi.n	2000e15a <HAL_RCC_ClockConfig+0x7e>
2000e0fe:	07d0      	lsls	r0, r2, #31
2000e100:	d441      	bmi.n	2000e186 <HAL_RCC_ClockConfig+0xaa>
2000e102:	4b3f      	ldr	r3, [pc, #252]	; (2000e200 <HAL_RCC_ClockConfig+0x124>)
2000e104:	681a      	ldr	r2, [r3, #0]
2000e106:	f002 020f 	and.w	r2, r2, #15
2000e10a:	42aa      	cmp	r2, r5
2000e10c:	d866      	bhi.n	2000e1dc <HAL_RCC_ClockConfig+0x100>
2000e10e:	6822      	ldr	r2, [r4, #0]
2000e110:	0751      	lsls	r1, r2, #29
2000e112:	d46c      	bmi.n	2000e1ee <HAL_RCC_ClockConfig+0x112>
2000e114:	0713      	lsls	r3, r2, #28
2000e116:	d507      	bpl.n	2000e128 <HAL_RCC_ClockConfig+0x4c>
2000e118:	4a3a      	ldr	r2, [pc, #232]	; (2000e204 <HAL_RCC_ClockConfig+0x128>)
2000e11a:	6921      	ldr	r1, [r4, #16]
2000e11c:	6893      	ldr	r3, [r2, #8]
2000e11e:	f423 4360 	bic.w	r3, r3, #57344	; 0xe000
2000e122:	ea43 03c1 	orr.w	r3, r3, r1, lsl #3
2000e126:	6093      	str	r3, [r2, #8]
2000e128:	f7ff ffaa 	bl	2000e080 <HAL_RCC_GetSysClockFreq>
2000e12c:	4b35      	ldr	r3, [pc, #212]	; (2000e204 <HAL_RCC_ClockConfig+0x128>)
2000e12e:	4a36      	ldr	r2, [pc, #216]	; (2000e208 <HAL_RCC_ClockConfig+0x12c>)
2000e130:	689b      	ldr	r3, [r3, #8]
2000e132:	f3c3 1303 	ubfx	r3, r3, #4, #4
2000e136:	5cd3      	ldrb	r3, [r2, r3]
2000e138:	40d8      	lsrs	r0, r3
2000e13a:	4b34      	ldr	r3, [pc, #208]	; (2000e20c <HAL_RCC_ClockConfig+0x130>)
2000e13c:	6018      	str	r0, [r3, #0]
2000e13e:	4b34      	ldr	r3, [pc, #208]	; (2000e210 <HAL_RCC_ClockConfig+0x134>)
2000e140:	6818      	ldr	r0, [r3, #0]
2000e142:	f7ff fbe3 	bl	2000d90c <HAL_InitTick>
2000e146:	2000      	movs	r0, #0
2000e148:	e7ce      	b.n	2000e0e8 <HAL_RCC_ClockConfig+0xc>
2000e14a:	b2ca      	uxtb	r2, r1
2000e14c:	701a      	strb	r2, [r3, #0]
2000e14e:	681b      	ldr	r3, [r3, #0]
2000e150:	f003 030f 	and.w	r3, r3, #15
2000e154:	428b      	cmp	r3, r1
2000e156:	d1c6      	bne.n	2000e0e6 <HAL_RCC_ClockConfig+0xa>
2000e158:	e7ce      	b.n	2000e0f8 <HAL_RCC_ClockConfig+0x1c>
2000e15a:	4b2a      	ldr	r3, [pc, #168]	; (2000e204 <HAL_RCC_ClockConfig+0x128>)
2000e15c:	f012 0f04 	tst.w	r2, #4
2000e160:	bf1e      	ittt	ne
2000e162:	6899      	ldrne	r1, [r3, #8]
2000e164:	f441 51e0 	orrne.w	r1, r1, #7168	; 0x1c00
2000e168:	6099      	strne	r1, [r3, #8]
2000e16a:	0716      	lsls	r6, r2, #28
2000e16c:	bf42      	ittt	mi
2000e16e:	6899      	ldrmi	r1, [r3, #8]
2000e170:	f441 4160 	orrmi.w	r1, r1, #57344	; 0xe000
2000e174:	6099      	strmi	r1, [r3, #8]
2000e176:	4923      	ldr	r1, [pc, #140]	; (2000e204 <HAL_RCC_ClockConfig+0x128>)
2000e178:	68a0      	ldr	r0, [r4, #8]
2000e17a:	688b      	ldr	r3, [r1, #8]
2000e17c:	f023 03f0 	bic.w	r3, r3, #240	; 0xf0
2000e180:	4303      	orrs	r3, r0
2000e182:	608b      	str	r3, [r1, #8]
2000e184:	e7bb      	b.n	2000e0fe <HAL_RCC_ClockConfig+0x22>
2000e186:	6862      	ldr	r2, [r4, #4]
2000e188:	4b1e      	ldr	r3, [pc, #120]	; (2000e204 <HAL_RCC_ClockConfig+0x128>)
2000e18a:	2a01      	cmp	r2, #1
2000e18c:	d11c      	bne.n	2000e1c8 <HAL_RCC_ClockConfig+0xec>
2000e18e:	681b      	ldr	r3, [r3, #0]
2000e190:	f413 3f00 	tst.w	r3, #131072	; 0x20000
2000e194:	d0a7      	beq.n	2000e0e6 <HAL_RCC_ClockConfig+0xa>
2000e196:	4e1b      	ldr	r6, [pc, #108]	; (2000e204 <HAL_RCC_ClockConfig+0x128>)
2000e198:	68b3      	ldr	r3, [r6, #8]
2000e19a:	f023 0303 	bic.w	r3, r3, #3
2000e19e:	4313      	orrs	r3, r2
2000e1a0:	60b3      	str	r3, [r6, #8]
2000e1a2:	f7ff fc5b 	bl	2000da5c <HAL_GetTick>
2000e1a6:	f241 3888 	movw	r8, #5000	; 0x1388
2000e1aa:	4607      	mov	r7, r0
2000e1ac:	68b3      	ldr	r3, [r6, #8]
2000e1ae:	6862      	ldr	r2, [r4, #4]
2000e1b0:	f003 030c 	and.w	r3, r3, #12
2000e1b4:	ebb3 0f82 	cmp.w	r3, r2, lsl #2
2000e1b8:	d0a3      	beq.n	2000e102 <HAL_RCC_ClockConfig+0x26>
2000e1ba:	f7ff fc4f 	bl	2000da5c <HAL_GetTick>
2000e1be:	1bc0      	subs	r0, r0, r7
2000e1c0:	4540      	cmp	r0, r8
2000e1c2:	d9f3      	bls.n	2000e1ac <HAL_RCC_ClockConfig+0xd0>
2000e1c4:	2003      	movs	r0, #3
2000e1c6:	e78f      	b.n	2000e0e8 <HAL_RCC_ClockConfig+0xc>
2000e1c8:	1e91      	subs	r1, r2, #2
2000e1ca:	2901      	cmp	r1, #1
2000e1cc:	681b      	ldr	r3, [r3, #0]
2000e1ce:	d802      	bhi.n	2000e1d6 <HAL_RCC_ClockConfig+0xfa>
2000e1d0:	f013 7f00 	tst.w	r3, #33554432	; 0x2000000
2000e1d4:	e7de      	b.n	2000e194 <HAL_RCC_ClockConfig+0xb8>
2000e1d6:	f013 0f02 	tst.w	r3, #2
2000e1da:	e7db      	b.n	2000e194 <HAL_RCC_ClockConfig+0xb8>
2000e1dc:	b2ea      	uxtb	r2, r5
2000e1de:	701a      	strb	r2, [r3, #0]
2000e1e0:	681b      	ldr	r3, [r3, #0]
2000e1e2:	f003 030f 	and.w	r3, r3, #15
2000e1e6:	42ab      	cmp	r3, r5
2000e1e8:	f47f af7d 	bne.w	2000e0e6 <HAL_RCC_ClockConfig+0xa>
2000e1ec:	e78f      	b.n	2000e10e <HAL_RCC_ClockConfig+0x32>
2000e1ee:	4905      	ldr	r1, [pc, #20]	; (2000e204 <HAL_RCC_ClockConfig+0x128>)
2000e1f0:	68e0      	ldr	r0, [r4, #12]
2000e1f2:	688b      	ldr	r3, [r1, #8]
2000e1f4:	f423 53e0 	bic.w	r3, r3, #7168	; 0x1c00
2000e1f8:	4303      	orrs	r3, r0
2000e1fa:	608b      	str	r3, [r1, #8]
2000e1fc:	e78a      	b.n	2000e114 <HAL_RCC_ClockConfig+0x38>
2000e1fe:	bf00      	nop
2000e200:	40023c00 	.word	0x40023c00
2000e204:	40023800 	.word	0x40023800
2000e208:	20010470 	.word	0x20010470
2000e20c:	200104b8 	.word	0x200104b8
2000e210:	200104c0 	.word	0x200104c0

2000e214 <HAL_RCC_GetHCLKFreq>:
2000e214:	4b01      	ldr	r3, [pc, #4]	; (2000e21c <HAL_RCC_GetHCLKFreq+0x8>)
2000e216:	6818      	ldr	r0, [r3, #0]
2000e218:	4770      	bx	lr
2000e21a:	bf00      	nop
2000e21c:	200104b8 	.word	0x200104b8

2000e220 <HAL_RCC_GetPCLK1Freq>:
2000e220:	4b04      	ldr	r3, [pc, #16]	; (2000e234 <HAL_RCC_GetPCLK1Freq+0x14>)
2000e222:	4a05      	ldr	r2, [pc, #20]	; (2000e238 <HAL_RCC_GetPCLK1Freq+0x18>)
2000e224:	689b      	ldr	r3, [r3, #8]
2000e226:	f3c3 2382 	ubfx	r3, r3, #10, #3
2000e22a:	5cd3      	ldrb	r3, [r2, r3]
2000e22c:	4a03      	ldr	r2, [pc, #12]	; (2000e23c <HAL_RCC_GetPCLK1Freq+0x1c>)
2000e22e:	6810      	ldr	r0, [r2, #0]
2000e230:	40d8      	lsrs	r0, r3
2000e232:	4770      	bx	lr
2000e234:	40023800 	.word	0x40023800
2000e238:	20010480 	.word	0x20010480
2000e23c:	200104b8 	.word	0x200104b8

2000e240 <HAL_RCC_GetClockConfig>:
2000e240:	230f      	movs	r3, #15
2000e242:	6003      	str	r3, [r0, #0]
2000e244:	4b0b      	ldr	r3, [pc, #44]	; (2000e274 <HAL_RCC_GetClockConfig+0x34>)
2000e246:	689a      	ldr	r2, [r3, #8]
2000e248:	f002 0203 	and.w	r2, r2, #3
2000e24c:	6042      	str	r2, [r0, #4]
2000e24e:	689a      	ldr	r2, [r3, #8]
2000e250:	f002 02f0 	and.w	r2, r2, #240	; 0xf0
2000e254:	6082      	str	r2, [r0, #8]
2000e256:	689a      	ldr	r2, [r3, #8]
2000e258:	f402 52e0 	and.w	r2, r2, #7168	; 0x1c00
2000e25c:	60c2      	str	r2, [r0, #12]
2000e25e:	689b      	ldr	r3, [r3, #8]
2000e260:	08db      	lsrs	r3, r3, #3
2000e262:	f403 53e0 	and.w	r3, r3, #7168	; 0x1c00
2000e266:	6103      	str	r3, [r0, #16]
2000e268:	4b03      	ldr	r3, [pc, #12]	; (2000e278 <HAL_RCC_GetClockConfig+0x38>)
2000e26a:	681b      	ldr	r3, [r3, #0]
2000e26c:	f003 030f 	and.w	r3, r3, #15
2000e270:	600b      	str	r3, [r1, #0]
2000e272:	4770      	bx	lr
2000e274:	40023800 	.word	0x40023800
2000e278:	40023c00 	.word	0x40023c00

2000e27c <HAL_TIM_Base_MspInit>:
2000e27c:	4770      	bx	lr

2000e27e <HAL_TIM_Base_Start_IT>:
2000e27e:	6803      	ldr	r3, [r0, #0]
2000e280:	68da      	ldr	r2, [r3, #12]
2000e282:	f042 0201 	orr.w	r2, r2, #1
2000e286:	60da      	str	r2, [r3, #12]
2000e288:	689a      	ldr	r2, [r3, #8]
2000e28a:	f002 0207 	and.w	r2, r2, #7
2000e28e:	2a06      	cmp	r2, #6
2000e290:	bf1e      	ittt	ne
2000e292:	681a      	ldrne	r2, [r3, #0]
2000e294:	f042 0201 	orrne.w	r2, r2, #1
2000e298:	601a      	strne	r2, [r3, #0]
2000e29a:	2000      	movs	r0, #0
2000e29c:	4770      	bx	lr

2000e29e <HAL_TIM_OC_DelayElapsedCallback>:
2000e29e:	4770      	bx	lr

2000e2a0 <HAL_TIM_IC_CaptureCallback>:
2000e2a0:	4770      	bx	lr

2000e2a2 <HAL_TIM_PWM_PulseFinishedCallback>:
2000e2a2:	4770      	bx	lr

2000e2a4 <HAL_TIM_TriggerCallback>:
2000e2a4:	4770      	bx	lr

2000e2a6 <HAL_TIM_IRQHandler>:
2000e2a6:	6803      	ldr	r3, [r0, #0]
2000e2a8:	691a      	ldr	r2, [r3, #16]
2000e2aa:	0791      	lsls	r1, r2, #30
2000e2ac:	b510      	push	{r4, lr}
2000e2ae:	4604      	mov	r4, r0
2000e2b0:	d50e      	bpl.n	2000e2d0 <HAL_TIM_IRQHandler+0x2a>
2000e2b2:	68da      	ldr	r2, [r3, #12]
2000e2b4:	0792      	lsls	r2, r2, #30
2000e2b6:	d50b      	bpl.n	2000e2d0 <HAL_TIM_IRQHandler+0x2a>
2000e2b8:	f06f 0202 	mvn.w	r2, #2
2000e2bc:	611a      	str	r2, [r3, #16]
2000e2be:	2201      	movs	r2, #1
2000e2c0:	7702      	strb	r2, [r0, #28]
2000e2c2:	699b      	ldr	r3, [r3, #24]
2000e2c4:	079b      	lsls	r3, r3, #30
2000e2c6:	d077      	beq.n	2000e3b8 <HAL_TIM_IRQHandler+0x112>
2000e2c8:	f7ff ffea 	bl	2000e2a0 <HAL_TIM_IC_CaptureCallback>
2000e2cc:	2300      	movs	r3, #0
2000e2ce:	7723      	strb	r3, [r4, #28]
2000e2d0:	6823      	ldr	r3, [r4, #0]
2000e2d2:	691a      	ldr	r2, [r3, #16]
2000e2d4:	0750      	lsls	r0, r2, #29
2000e2d6:	d510      	bpl.n	2000e2fa <HAL_TIM_IRQHandler+0x54>
2000e2d8:	68da      	ldr	r2, [r3, #12]
2000e2da:	0751      	lsls	r1, r2, #29
2000e2dc:	d50d      	bpl.n	2000e2fa <HAL_TIM_IRQHandler+0x54>
2000e2de:	f06f 0204 	mvn.w	r2, #4
2000e2e2:	611a      	str	r2, [r3, #16]
2000e2e4:	2202      	movs	r2, #2
2000e2e6:	7722      	strb	r2, [r4, #28]
2000e2e8:	699b      	ldr	r3, [r3, #24]
2000e2ea:	f413 7f40 	tst.w	r3, #768	; 0x300
2000e2ee:	4620      	mov	r0, r4
2000e2f0:	d068      	beq.n	2000e3c4 <HAL_TIM_IRQHandler+0x11e>
2000e2f2:	f7ff ffd5 	bl	2000e2a0 <HAL_TIM_IC_CaptureCallback>
2000e2f6:	2300      	movs	r3, #0
2000e2f8:	7723      	strb	r3, [r4, #28]
2000e2fa:	6823      	ldr	r3, [r4, #0]
2000e2fc:	691a      	ldr	r2, [r3, #16]
2000e2fe:	0712      	lsls	r2, r2, #28
2000e300:	d50f      	bpl.n	2000e322 <HAL_TIM_IRQHandler+0x7c>
2000e302:	68da      	ldr	r2, [r3, #12]
2000e304:	0710      	lsls	r0, r2, #28
2000e306:	d50c      	bpl.n	2000e322 <HAL_TIM_IRQHandler+0x7c>
2000e308:	f06f 0208 	mvn.w	r2, #8
2000e30c:	611a      	str	r2, [r3, #16]
2000e30e:	2204      	movs	r2, #4
2000e310:	7722      	strb	r2, [r4, #28]
2000e312:	69db      	ldr	r3, [r3, #28]
2000e314:	0799      	lsls	r1, r3, #30
2000e316:	4620      	mov	r0, r4
2000e318:	d05a      	beq.n	2000e3d0 <HAL_TIM_IRQHandler+0x12a>
2000e31a:	f7ff ffc1 	bl	2000e2a0 <HAL_TIM_IC_CaptureCallback>
2000e31e:	2300      	movs	r3, #0
2000e320:	7723      	strb	r3, [r4, #28]
2000e322:	6823      	ldr	r3, [r4, #0]
2000e324:	691a      	ldr	r2, [r3, #16]
2000e326:	06d2      	lsls	r2, r2, #27
2000e328:	d510      	bpl.n	2000e34c <HAL_TIM_IRQHandler+0xa6>
2000e32a:	68da      	ldr	r2, [r3, #12]
2000e32c:	06d0      	lsls	r0, r2, #27
2000e32e:	d50d      	bpl.n	2000e34c <HAL_TIM_IRQHandler+0xa6>
2000e330:	f06f 0210 	mvn.w	r2, #16
2000e334:	611a      	str	r2, [r3, #16]
2000e336:	2208      	movs	r2, #8
2000e338:	7722      	strb	r2, [r4, #28]
2000e33a:	69db      	ldr	r3, [r3, #28]
2000e33c:	f413 7f40 	tst.w	r3, #768	; 0x300
2000e340:	4620      	mov	r0, r4
2000e342:	d04b      	beq.n	2000e3dc <HAL_TIM_IRQHandler+0x136>
2000e344:	f7ff ffac 	bl	2000e2a0 <HAL_TIM_IC_CaptureCallback>
2000e348:	2300      	movs	r3, #0
2000e34a:	7723      	strb	r3, [r4, #28]
2000e34c:	6823      	ldr	r3, [r4, #0]
2000e34e:	691a      	ldr	r2, [r3, #16]
2000e350:	07d1      	lsls	r1, r2, #31
2000e352:	d508      	bpl.n	2000e366 <HAL_TIM_IRQHandler+0xc0>
2000e354:	68da      	ldr	r2, [r3, #12]
2000e356:	07d2      	lsls	r2, r2, #31
2000e358:	d505      	bpl.n	2000e366 <HAL_TIM_IRQHandler+0xc0>
2000e35a:	f06f 0201 	mvn.w	r2, #1
2000e35e:	611a      	str	r2, [r3, #16]
2000e360:	4620      	mov	r0, r4
2000e362:	f7ff faa3 	bl	2000d8ac <HAL_TIM_PeriodElapsedCallback>
2000e366:	6823      	ldr	r3, [r4, #0]
2000e368:	691a      	ldr	r2, [r3, #16]
2000e36a:	0610      	lsls	r0, r2, #24
2000e36c:	d508      	bpl.n	2000e380 <HAL_TIM_IRQHandler+0xda>
2000e36e:	68da      	ldr	r2, [r3, #12]
2000e370:	0611      	lsls	r1, r2, #24
2000e372:	d505      	bpl.n	2000e380 <HAL_TIM_IRQHandler+0xda>
2000e374:	f06f 0280 	mvn.w	r2, #128	; 0x80
2000e378:	611a      	str	r2, [r3, #16]
2000e37a:	4620      	mov	r0, r4
2000e37c:	f000 f8b7 	bl	2000e4ee <HAL_TIMEx_BreakCallback>
2000e380:	6823      	ldr	r3, [r4, #0]
2000e382:	691a      	ldr	r2, [r3, #16]
2000e384:	0652      	lsls	r2, r2, #25
2000e386:	d508      	bpl.n	2000e39a <HAL_TIM_IRQHandler+0xf4>
2000e388:	68da      	ldr	r2, [r3, #12]
2000e38a:	0650      	lsls	r0, r2, #25
2000e38c:	d505      	bpl.n	2000e39a <HAL_TIM_IRQHandler+0xf4>
2000e38e:	f06f 0240 	mvn.w	r2, #64	; 0x40
2000e392:	611a      	str	r2, [r3, #16]
2000e394:	4620      	mov	r0, r4
2000e396:	f7ff ff85 	bl	2000e2a4 <HAL_TIM_TriggerCallback>
2000e39a:	6823      	ldr	r3, [r4, #0]
2000e39c:	691a      	ldr	r2, [r3, #16]
2000e39e:	0691      	lsls	r1, r2, #26
2000e3a0:	d522      	bpl.n	2000e3e8 <HAL_TIM_IRQHandler+0x142>
2000e3a2:	68da      	ldr	r2, [r3, #12]
2000e3a4:	0692      	lsls	r2, r2, #26
2000e3a6:	d51f      	bpl.n	2000e3e8 <HAL_TIM_IRQHandler+0x142>
2000e3a8:	f06f 0220 	mvn.w	r2, #32
2000e3ac:	4620      	mov	r0, r4
2000e3ae:	611a      	str	r2, [r3, #16]
2000e3b0:	e8bd 4010 	ldmia.w	sp!, {r4, lr}
2000e3b4:	f000 b89a 	b.w	2000e4ec <HAL_TIMEx_CommutCallback>
2000e3b8:	f7ff ff71 	bl	2000e29e <HAL_TIM_OC_DelayElapsedCallback>
2000e3bc:	4620      	mov	r0, r4
2000e3be:	f7ff ff70 	bl	2000e2a2 <HAL_TIM_PWM_PulseFinishedCallback>
2000e3c2:	e783      	b.n	2000e2cc <HAL_TIM_IRQHandler+0x26>
2000e3c4:	f7ff ff6b 	bl	2000e29e <HAL_TIM_OC_DelayElapsedCallback>
2000e3c8:	4620      	mov	r0, r4
2000e3ca:	f7ff ff6a 	bl	2000e2a2 <HAL_TIM_PWM_PulseFinishedCallback>
2000e3ce:	e792      	b.n	2000e2f6 <HAL_TIM_IRQHandler+0x50>
2000e3d0:	f7ff ff65 	bl	2000e29e <HAL_TIM_OC_DelayElapsedCallback>
2000e3d4:	4620      	mov	r0, r4
2000e3d6:	f7ff ff64 	bl	2000e2a2 <HAL_TIM_PWM_PulseFinishedCallback>
2000e3da:	e7a0      	b.n	2000e31e <HAL_TIM_IRQHandler+0x78>
2000e3dc:	f7ff ff5f 	bl	2000e29e <HAL_TIM_OC_DelayElapsedCallback>
2000e3e0:	4620      	mov	r0, r4
2000e3e2:	f7ff ff5e 	bl	2000e2a2 <HAL_TIM_PWM_PulseFinishedCallback>
2000e3e6:	e7af      	b.n	2000e348 <HAL_TIM_IRQHandler+0xa2>
2000e3e8:	bd10      	pop	{r4, pc}
	...

2000e3ec <TIM_Base_SetConfig>:
2000e3ec:	4a30      	ldr	r2, [pc, #192]	; (2000e4b0 <TIM_Base_SetConfig+0xc4>)
2000e3ee:	6803      	ldr	r3, [r0, #0]
2000e3f0:	4290      	cmp	r0, r2
2000e3f2:	d012      	beq.n	2000e41a <TIM_Base_SetConfig+0x2e>
2000e3f4:	f1b0 4f80 	cmp.w	r0, #1073741824	; 0x40000000
2000e3f8:	d00f      	beq.n	2000e41a <TIM_Base_SetConfig+0x2e>
2000e3fa:	f5a2 427c 	sub.w	r2, r2, #64512	; 0xfc00
2000e3fe:	4290      	cmp	r0, r2
2000e400:	d00b      	beq.n	2000e41a <TIM_Base_SetConfig+0x2e>
2000e402:	f502 6280 	add.w	r2, r2, #1024	; 0x400
2000e406:	4290      	cmp	r0, r2
2000e408:	d007      	beq.n	2000e41a <TIM_Base_SetConfig+0x2e>
2000e40a:	f502 6280 	add.w	r2, r2, #1024	; 0x400
2000e40e:	4290      	cmp	r0, r2
2000e410:	d003      	beq.n	2000e41a <TIM_Base_SetConfig+0x2e>
2000e412:	f502 4278 	add.w	r2, r2, #63488	; 0xf800
2000e416:	4290      	cmp	r0, r2
2000e418:	d119      	bne.n	2000e44e <TIM_Base_SetConfig+0x62>
2000e41a:	684a      	ldr	r2, [r1, #4]
2000e41c:	f023 0370 	bic.w	r3, r3, #112	; 0x70
2000e420:	4313      	orrs	r3, r2
2000e422:	4a23      	ldr	r2, [pc, #140]	; (2000e4b0 <TIM_Base_SetConfig+0xc4>)
2000e424:	4290      	cmp	r0, r2
2000e426:	d029      	beq.n	2000e47c <TIM_Base_SetConfig+0x90>
2000e428:	f1b0 4f80 	cmp.w	r0, #1073741824	; 0x40000000
2000e42c:	d026      	beq.n	2000e47c <TIM_Base_SetConfig+0x90>
2000e42e:	f5a2 427c 	sub.w	r2, r2, #64512	; 0xfc00
2000e432:	4290      	cmp	r0, r2
2000e434:	d022      	beq.n	2000e47c <TIM_Base_SetConfig+0x90>
2000e436:	f502 6280 	add.w	r2, r2, #1024	; 0x400
2000e43a:	4290      	cmp	r0, r2
2000e43c:	d01e      	beq.n	2000e47c <TIM_Base_SetConfig+0x90>
2000e43e:	f502 6280 	add.w	r2, r2, #1024	; 0x400
2000e442:	4290      	cmp	r0, r2
2000e444:	d01a      	beq.n	2000e47c <TIM_Base_SetConfig+0x90>
2000e446:	f502 4278 	add.w	r2, r2, #63488	; 0xf800
2000e44a:	4290      	cmp	r0, r2
2000e44c:	d016      	beq.n	2000e47c <TIM_Base_SetConfig+0x90>
2000e44e:	4a19      	ldr	r2, [pc, #100]	; (2000e4b4 <TIM_Base_SetConfig+0xc8>)
2000e450:	4290      	cmp	r0, r2
2000e452:	d013      	beq.n	2000e47c <TIM_Base_SetConfig+0x90>
2000e454:	f502 6280 	add.w	r2, r2, #1024	; 0x400
2000e458:	4290      	cmp	r0, r2
2000e45a:	d00f      	beq.n	2000e47c <TIM_Base_SetConfig+0x90>
2000e45c:	f502 6280 	add.w	r2, r2, #1024	; 0x400
2000e460:	4290      	cmp	r0, r2
2000e462:	d00b      	beq.n	2000e47c <TIM_Base_SetConfig+0x90>
2000e464:	f5a2 3298 	sub.w	r2, r2, #77824	; 0x13000
2000e468:	4290      	cmp	r0, r2
2000e46a:	d007      	beq.n	2000e47c <TIM_Base_SetConfig+0x90>
2000e46c:	f502 6280 	add.w	r2, r2, #1024	; 0x400
2000e470:	4290      	cmp	r0, r2
2000e472:	d003      	beq.n	2000e47c <TIM_Base_SetConfig+0x90>
2000e474:	f502 6280 	add.w	r2, r2, #1024	; 0x400
2000e478:	4290      	cmp	r0, r2
2000e47a:	d103      	bne.n	2000e484 <TIM_Base_SetConfig+0x98>
2000e47c:	68ca      	ldr	r2, [r1, #12]
2000e47e:	f423 7340 	bic.w	r3, r3, #768	; 0x300
2000e482:	4313      	orrs	r3, r2
2000e484:	694a      	ldr	r2, [r1, #20]
2000e486:	f023 0380 	bic.w	r3, r3, #128	; 0x80
2000e48a:	4313      	orrs	r3, r2
2000e48c:	6003      	str	r3, [r0, #0]
2000e48e:	688b      	ldr	r3, [r1, #8]
2000e490:	62c3      	str	r3, [r0, #44]	; 0x2c
2000e492:	680b      	ldr	r3, [r1, #0]
2000e494:	6283      	str	r3, [r0, #40]	; 0x28
2000e496:	4b06      	ldr	r3, [pc, #24]	; (2000e4b0 <TIM_Base_SetConfig+0xc4>)
2000e498:	4298      	cmp	r0, r3
2000e49a:	d003      	beq.n	2000e4a4 <TIM_Base_SetConfig+0xb8>
2000e49c:	f503 6380 	add.w	r3, r3, #1024	; 0x400
2000e4a0:	4298      	cmp	r0, r3
2000e4a2:	d101      	bne.n	2000e4a8 <TIM_Base_SetConfig+0xbc>
2000e4a4:	690b      	ldr	r3, [r1, #16]
2000e4a6:	6303      	str	r3, [r0, #48]	; 0x30
2000e4a8:	2301      	movs	r3, #1
2000e4aa:	6143      	str	r3, [r0, #20]
2000e4ac:	4770      	bx	lr
2000e4ae:	bf00      	nop
2000e4b0:	40010000 	.word	0x40010000
2000e4b4:	40014000 	.word	0x40014000

2000e4b8 <HAL_TIM_Base_Init>:
2000e4b8:	b510      	push	{r4, lr}
2000e4ba:	4604      	mov	r4, r0
2000e4bc:	b1a0      	cbz	r0, 2000e4e8 <HAL_TIM_Base_Init+0x30>
2000e4be:	f890 303d 	ldrb.w	r3, [r0, #61]	; 0x3d
2000e4c2:	f003 02ff 	and.w	r2, r3, #255	; 0xff
2000e4c6:	b91b      	cbnz	r3, 2000e4d0 <HAL_TIM_Base_Init+0x18>
2000e4c8:	f880 203c 	strb.w	r2, [r0, #60]	; 0x3c
2000e4cc:	f7ff fed6 	bl	2000e27c <HAL_TIM_Base_MspInit>
2000e4d0:	2302      	movs	r3, #2
2000e4d2:	6820      	ldr	r0, [r4, #0]
2000e4d4:	f884 303d 	strb.w	r3, [r4, #61]	; 0x3d
2000e4d8:	1d21      	adds	r1, r4, #4
2000e4da:	f7ff ff87 	bl	2000e3ec <TIM_Base_SetConfig>
2000e4de:	2301      	movs	r3, #1
2000e4e0:	f884 303d 	strb.w	r3, [r4, #61]	; 0x3d
2000e4e4:	2000      	movs	r0, #0
2000e4e6:	bd10      	pop	{r4, pc}
2000e4e8:	2001      	movs	r0, #1
2000e4ea:	e7fc      	b.n	2000e4e6 <HAL_TIM_Base_Init+0x2e>

2000e4ec <HAL_TIMEx_CommutCallback>:
2000e4ec:	4770      	bx	lr

2000e4ee <HAL_TIMEx_BreakCallback>:
2000e4ee:	4770      	bx	lr

2000e4f0 <osKernelInitialize>:
2000e4f0:	f3ef 8305 	mrs	r3, IPSR
2000e4f4:	b113      	cbz	r3, 2000e4fc <osKernelInitialize+0xc>
2000e4f6:	f06f 0005 	mvn.w	r0, #5
2000e4fa:	4770      	bx	lr
2000e4fc:	f3ef 8210 	mrs	r2, PRIMASK
2000e500:	4b07      	ldr	r3, [pc, #28]	; (2000e520 <osKernelInitialize+0x30>)
2000e502:	b912      	cbnz	r2, 2000e50a <osKernelInitialize+0x1a>
2000e504:	f3ef 8211 	mrs	r2, BASEPRI
2000e508:	b112      	cbz	r2, 2000e510 <osKernelInitialize+0x20>
2000e50a:	681a      	ldr	r2, [r3, #0]
2000e50c:	2a02      	cmp	r2, #2
2000e50e:	d0f2      	beq.n	2000e4f6 <osKernelInitialize+0x6>
2000e510:	6818      	ldr	r0, [r3, #0]
2000e512:	b910      	cbnz	r0, 2000e51a <osKernelInitialize+0x2a>
2000e514:	2201      	movs	r2, #1
2000e516:	601a      	str	r2, [r3, #0]
2000e518:	4770      	bx	lr
2000e51a:	f04f 30ff 	mov.w	r0, #4294967295
2000e51e:	4770      	bx	lr
2000e520:	20010798 	.word	0x20010798

2000e524 <osKernelStart>:
2000e524:	b508      	push	{r3, lr}
2000e526:	f3ef 8305 	mrs	r3, IPSR
2000e52a:	b113      	cbz	r3, 2000e532 <osKernelStart+0xe>
2000e52c:	f06f 0005 	mvn.w	r0, #5
2000e530:	bd08      	pop	{r3, pc}
2000e532:	f3ef 8210 	mrs	r2, PRIMASK
2000e536:	4b0a      	ldr	r3, [pc, #40]	; (2000e560 <osKernelStart+0x3c>)
2000e538:	b912      	cbnz	r2, 2000e540 <osKernelStart+0x1c>
2000e53a:	f3ef 8211 	mrs	r2, BASEPRI
2000e53e:	b112      	cbz	r2, 2000e546 <osKernelStart+0x22>
2000e540:	681a      	ldr	r2, [r3, #0]
2000e542:	2a02      	cmp	r2, #2
2000e544:	d0f2      	beq.n	2000e52c <osKernelStart+0x8>
2000e546:	681a      	ldr	r2, [r3, #0]
2000e548:	2a01      	cmp	r2, #1
2000e54a:	d105      	bne.n	2000e558 <osKernelStart+0x34>
2000e54c:	2202      	movs	r2, #2
2000e54e:	601a      	str	r2, [r3, #0]
2000e550:	f000 fda6 	bl	2000f0a0 <vTaskStartScheduler>
2000e554:	2000      	movs	r0, #0
2000e556:	e7eb      	b.n	2000e530 <osKernelStart+0xc>
2000e558:	f04f 30ff 	mov.w	r0, #4294967295
2000e55c:	e7e8      	b.n	2000e530 <osKernelStart+0xc>
2000e55e:	bf00      	nop
2000e560:	20010798 	.word	0x20010798

2000e564 <osThreadNew>:
2000e564:	b5f0      	push	{r4, r5, r6, r7, lr}
2000e566:	b087      	sub	sp, #28
2000e568:	4614      	mov	r4, r2
2000e56a:	2200      	movs	r2, #0
2000e56c:	460b      	mov	r3, r1
2000e56e:	9205      	str	r2, [sp, #20]
2000e570:	f3ef 8205 	mrs	r2, IPSR
2000e574:	bb22      	cbnz	r2, 2000e5c0 <osThreadNew+0x5c>
2000e576:	f3ef 8210 	mrs	r2, PRIMASK
2000e57a:	b912      	cbnz	r2, 2000e582 <osThreadNew+0x1e>
2000e57c:	f3ef 8211 	mrs	r2, BASEPRI
2000e580:	b11a      	cbz	r2, 2000e58a <osThreadNew+0x26>
2000e582:	4a22      	ldr	r2, [pc, #136]	; (2000e60c <osThreadNew+0xa8>)
2000e584:	6812      	ldr	r2, [r2, #0]
2000e586:	2a02      	cmp	r2, #2
2000e588:	d01a      	beq.n	2000e5c0 <osThreadNew+0x5c>
2000e58a:	b1c8      	cbz	r0, 2000e5c0 <osThreadNew+0x5c>
2000e58c:	2c00      	cmp	r4, #0
2000e58e:	d02f      	beq.n	2000e5f0 <osThreadNew+0x8c>
2000e590:	69a5      	ldr	r5, [r4, #24]
2000e592:	2d00      	cmp	r5, #0
2000e594:	bf08      	it	eq
2000e596:	2518      	moveq	r5, #24
2000e598:	1e6a      	subs	r2, r5, #1
2000e59a:	2a37      	cmp	r2, #55	; 0x37
2000e59c:	46ac      	mov	ip, r5
2000e59e:	d82b      	bhi.n	2000e5f8 <osThreadNew+0x94>
2000e5a0:	6862      	ldr	r2, [r4, #4]
2000e5a2:	07d2      	lsls	r2, r2, #31
2000e5a4:	d428      	bmi.n	2000e5f8 <osThreadNew+0x94>
2000e5a6:	6966      	ldr	r6, [r4, #20]
2000e5a8:	b16e      	cbz	r6, 2000e5c6 <osThreadNew+0x62>
2000e5aa:	08b2      	lsrs	r2, r6, #2
2000e5ac:	e9d4 7e02 	ldrd	r7, lr, [r4, #8]
2000e5b0:	6821      	ldr	r1, [r4, #0]
2000e5b2:	b157      	cbz	r7, 2000e5ca <osThreadNew+0x66>
2000e5b4:	f1be 0f5b 	cmp.w	lr, #91	; 0x5b
2000e5b8:	d902      	bls.n	2000e5c0 <osThreadNew+0x5c>
2000e5ba:	6924      	ldr	r4, [r4, #16]
2000e5bc:	b104      	cbz	r4, 2000e5c0 <osThreadNew+0x5c>
2000e5be:	b9ee      	cbnz	r6, 2000e5fc <osThreadNew+0x98>
2000e5c0:	9805      	ldr	r0, [sp, #20]
2000e5c2:	b007      	add	sp, #28
2000e5c4:	bdf0      	pop	{r4, r5, r6, r7, pc}
2000e5c6:	2280      	movs	r2, #128	; 0x80
2000e5c8:	e7f0      	b.n	2000e5ac <osThreadNew+0x48>
2000e5ca:	f1be 0f00 	cmp.w	lr, #0
2000e5ce:	d1f7      	bne.n	2000e5c0 <osThreadNew+0x5c>
2000e5d0:	6924      	ldr	r4, [r4, #16]
2000e5d2:	2c00      	cmp	r4, #0
2000e5d4:	d1f4      	bne.n	2000e5c0 <osThreadNew+0x5c>
2000e5d6:	460c      	mov	r4, r1
2000e5d8:	a905      	add	r1, sp, #20
2000e5da:	e9cd c100 	strd	ip, r1, [sp]
2000e5de:	b292      	uxth	r2, r2
2000e5e0:	4621      	mov	r1, r4
2000e5e2:	f000 fd2f 	bl	2000f044 <xTaskCreate>
2000e5e6:	2801      	cmp	r0, #1
2000e5e8:	bf1c      	itt	ne
2000e5ea:	2300      	movne	r3, #0
2000e5ec:	9305      	strne	r3, [sp, #20]
2000e5ee:	e7e7      	b.n	2000e5c0 <osThreadNew+0x5c>
2000e5f0:	f04f 0c18 	mov.w	ip, #24
2000e5f4:	2280      	movs	r2, #128	; 0x80
2000e5f6:	e7ef      	b.n	2000e5d8 <osThreadNew+0x74>
2000e5f8:	2000      	movs	r0, #0
2000e5fa:	e7e2      	b.n	2000e5c2 <osThreadNew+0x5e>
2000e5fc:	e9cd 4701 	strd	r4, r7, [sp, #4]
2000e600:	9500      	str	r5, [sp, #0]
2000e602:	f000 fce7 	bl	2000efd4 <xTaskCreateStatic>
2000e606:	9005      	str	r0, [sp, #20]
2000e608:	e7da      	b.n	2000e5c0 <osThreadNew+0x5c>
2000e60a:	bf00      	nop
2000e60c:	20010798 	.word	0x20010798

2000e610 <osDelay>:
2000e610:	b508      	push	{r3, lr}
2000e612:	f3ef 8305 	mrs	r3, IPSR
2000e616:	b113      	cbz	r3, 2000e61e <osDelay+0xe>
2000e618:	f06f 0005 	mvn.w	r0, #5
2000e61c:	bd08      	pop	{r3, pc}
2000e61e:	f3ef 8310 	mrs	r3, PRIMASK
2000e622:	b913      	cbnz	r3, 2000e62a <osDelay+0x1a>
2000e624:	f3ef 8311 	mrs	r3, BASEPRI
2000e628:	b11b      	cbz	r3, 2000e632 <osDelay+0x22>
2000e62a:	4b05      	ldr	r3, [pc, #20]	; (2000e640 <osDelay+0x30>)
2000e62c:	681b      	ldr	r3, [r3, #0]
2000e62e:	2b02      	cmp	r3, #2
2000e630:	d0f2      	beq.n	2000e618 <osDelay+0x8>
2000e632:	2800      	cmp	r0, #0
2000e634:	d0f2      	beq.n	2000e61c <osDelay+0xc>
2000e636:	f000 fe8f 	bl	2000f358 <vTaskDelay>
2000e63a:	2000      	movs	r0, #0
2000e63c:	e7ee      	b.n	2000e61c <osDelay+0xc>
2000e63e:	bf00      	nop
2000e640:	20010798 	.word	0x20010798

2000e644 <vApplicationGetIdleTaskMemory>:
2000e644:	4b03      	ldr	r3, [pc, #12]	; (2000e654 <vApplicationGetIdleTaskMemory+0x10>)
2000e646:	6003      	str	r3, [r0, #0]
2000e648:	4b03      	ldr	r3, [pc, #12]	; (2000e658 <vApplicationGetIdleTaskMemory+0x14>)
2000e64a:	600b      	str	r3, [r1, #0]
2000e64c:	2380      	movs	r3, #128	; 0x80
2000e64e:	6013      	str	r3, [r2, #0]
2000e650:	4770      	bx	lr
2000e652:	bf00      	nop
2000e654:	2001073c 	.word	0x2001073c
2000e658:	2001053c 	.word	0x2001053c

2000e65c <vApplicationGetTimerTaskMemory>:
2000e65c:	4b03      	ldr	r3, [pc, #12]	; (2000e66c <vApplicationGetTimerTaskMemory+0x10>)
2000e65e:	6003      	str	r3, [r0, #0]
2000e660:	4b03      	ldr	r3, [pc, #12]	; (2000e670 <vApplicationGetTimerTaskMemory+0x14>)
2000e662:	600b      	str	r3, [r1, #0]
2000e664:	f44f 7380 	mov.w	r3, #256	; 0x100
2000e668:	6013      	str	r3, [r2, #0]
2000e66a:	4770      	bx	lr
2000e66c:	20010b9c 	.word	0x20010b9c
2000e670:	2001079c 	.word	0x2001079c

2000e674 <vListInitialise>:
2000e674:	f100 0308 	add.w	r3, r0, #8
2000e678:	f04f 32ff 	mov.w	r2, #4294967295
2000e67c:	e9c0 2302 	strd	r2, r3, [r0, #8]
2000e680:	6043      	str	r3, [r0, #4]
2000e682:	6103      	str	r3, [r0, #16]
2000e684:	2300      	movs	r3, #0
2000e686:	6003      	str	r3, [r0, #0]
2000e688:	4770      	bx	lr

2000e68a <vListInitialiseItem>:
2000e68a:	2300      	movs	r3, #0
2000e68c:	6103      	str	r3, [r0, #16]
2000e68e:	4770      	bx	lr

2000e690 <vListInsertEnd>:
2000e690:	6843      	ldr	r3, [r0, #4]
2000e692:	604b      	str	r3, [r1, #4]
2000e694:	689a      	ldr	r2, [r3, #8]
2000e696:	608a      	str	r2, [r1, #8]
2000e698:	689a      	ldr	r2, [r3, #8]
2000e69a:	6051      	str	r1, [r2, #4]
2000e69c:	6099      	str	r1, [r3, #8]
2000e69e:	6803      	ldr	r3, [r0, #0]
2000e6a0:	6108      	str	r0, [r1, #16]
2000e6a2:	3301      	adds	r3, #1
2000e6a4:	6003      	str	r3, [r0, #0]
2000e6a6:	4770      	bx	lr

2000e6a8 <vListInsert>:
2000e6a8:	b530      	push	{r4, r5, lr}
2000e6aa:	680c      	ldr	r4, [r1, #0]
2000e6ac:	1c63      	adds	r3, r4, #1
2000e6ae:	d10a      	bne.n	2000e6c6 <vListInsert+0x1e>
2000e6b0:	6903      	ldr	r3, [r0, #16]
2000e6b2:	685a      	ldr	r2, [r3, #4]
2000e6b4:	604a      	str	r2, [r1, #4]
2000e6b6:	6091      	str	r1, [r2, #8]
2000e6b8:	608b      	str	r3, [r1, #8]
2000e6ba:	6059      	str	r1, [r3, #4]
2000e6bc:	6803      	ldr	r3, [r0, #0]
2000e6be:	6108      	str	r0, [r1, #16]
2000e6c0:	3301      	adds	r3, #1
2000e6c2:	6003      	str	r3, [r0, #0]
2000e6c4:	bd30      	pop	{r4, r5, pc}
2000e6c6:	f100 0208 	add.w	r2, r0, #8
2000e6ca:	4613      	mov	r3, r2
2000e6cc:	6852      	ldr	r2, [r2, #4]
2000e6ce:	6815      	ldr	r5, [r2, #0]
2000e6d0:	42a5      	cmp	r5, r4
2000e6d2:	d9fa      	bls.n	2000e6ca <vListInsert+0x22>
2000e6d4:	e7ed      	b.n	2000e6b2 <vListInsert+0xa>

2000e6d6 <uxListRemove>:
2000e6d6:	e9d0 1201 	ldrd	r1, r2, [r0, #4]
2000e6da:	6903      	ldr	r3, [r0, #16]
2000e6dc:	608a      	str	r2, [r1, #8]
2000e6de:	6051      	str	r1, [r2, #4]
2000e6e0:	6859      	ldr	r1, [r3, #4]
2000e6e2:	4281      	cmp	r1, r0
2000e6e4:	bf08      	it	eq
2000e6e6:	605a      	streq	r2, [r3, #4]
2000e6e8:	2200      	movs	r2, #0
2000e6ea:	6102      	str	r2, [r0, #16]
2000e6ec:	681a      	ldr	r2, [r3, #0]
2000e6ee:	3a01      	subs	r2, #1
2000e6f0:	601a      	str	r2, [r3, #0]
2000e6f2:	6818      	ldr	r0, [r3, #0]
2000e6f4:	4770      	bx	lr

2000e6f6 <prvIsQueueEmpty>:
2000e6f6:	b510      	push	{r4, lr}
2000e6f8:	4604      	mov	r4, r0
2000e6fa:	f001 f9fb 	bl	2000faf4 <vPortEnterCritical>
2000e6fe:	6ba4      	ldr	r4, [r4, #56]	; 0x38
2000e700:	f001 fa1a 	bl	2000fb38 <vPortExitCritical>
2000e704:	fab4 f084 	clz	r0, r4
2000e708:	0940      	lsrs	r0, r0, #5
2000e70a:	bd10      	pop	{r4, pc}

2000e70c <prvCopyDataToQueue>:
2000e70c:	b5f8      	push	{r3, r4, r5, r6, r7, lr}
2000e70e:	4615      	mov	r5, r2
2000e710:	6c02      	ldr	r2, [r0, #64]	; 0x40
2000e712:	6b86      	ldr	r6, [r0, #56]	; 0x38
2000e714:	4604      	mov	r4, r0
2000e716:	b952      	cbnz	r2, 2000e72e <prvCopyDataToQueue+0x22>
2000e718:	6807      	ldr	r7, [r0, #0]
2000e71a:	bb47      	cbnz	r7, 2000e76e <prvCopyDataToQueue+0x62>
2000e71c:	6880      	ldr	r0, [r0, #8]
2000e71e:	f000 ff55 	bl	2000f5cc <xTaskPriorityDisinherit>
2000e722:	60a7      	str	r7, [r4, #8]
2000e724:	4605      	mov	r5, r0
2000e726:	3601      	adds	r6, #1
2000e728:	63a6      	str	r6, [r4, #56]	; 0x38
2000e72a:	4628      	mov	r0, r5
2000e72c:	bdf8      	pop	{r3, r4, r5, r6, r7, pc}
2000e72e:	b965      	cbnz	r5, 2000e74a <prvCopyDataToQueue+0x3e>
2000e730:	6840      	ldr	r0, [r0, #4]
2000e732:	f001 fc35 	bl	2000ffa0 <memcpy>
2000e736:	6863      	ldr	r3, [r4, #4]
2000e738:	6c22      	ldr	r2, [r4, #64]	; 0x40
2000e73a:	4413      	add	r3, r2
2000e73c:	68a2      	ldr	r2, [r4, #8]
2000e73e:	6063      	str	r3, [r4, #4]
2000e740:	4293      	cmp	r3, r2
2000e742:	d3f0      	bcc.n	2000e726 <prvCopyDataToQueue+0x1a>
2000e744:	6823      	ldr	r3, [r4, #0]
2000e746:	6063      	str	r3, [r4, #4]
2000e748:	e7ed      	b.n	2000e726 <prvCopyDataToQueue+0x1a>
2000e74a:	68c0      	ldr	r0, [r0, #12]
2000e74c:	f001 fc28 	bl	2000ffa0 <memcpy>
2000e750:	6c22      	ldr	r2, [r4, #64]	; 0x40
2000e752:	68e3      	ldr	r3, [r4, #12]
2000e754:	4251      	negs	r1, r2
2000e756:	1a9b      	subs	r3, r3, r2
2000e758:	6822      	ldr	r2, [r4, #0]
2000e75a:	60e3      	str	r3, [r4, #12]
2000e75c:	4293      	cmp	r3, r2
2000e75e:	bf3e      	ittt	cc
2000e760:	68a3      	ldrcc	r3, [r4, #8]
2000e762:	185b      	addcc	r3, r3, r1
2000e764:	60e3      	strcc	r3, [r4, #12]
2000e766:	2d02      	cmp	r5, #2
2000e768:	d101      	bne.n	2000e76e <prvCopyDataToQueue+0x62>
2000e76a:	b116      	cbz	r6, 2000e772 <prvCopyDataToQueue+0x66>
2000e76c:	3e01      	subs	r6, #1
2000e76e:	2500      	movs	r5, #0
2000e770:	e7d9      	b.n	2000e726 <prvCopyDataToQueue+0x1a>
2000e772:	4635      	mov	r5, r6
2000e774:	e7d7      	b.n	2000e726 <prvCopyDataToQueue+0x1a>

2000e776 <prvCopyDataFromQueue>:
2000e776:	4603      	mov	r3, r0
2000e778:	b410      	push	{r4}
2000e77a:	6c1a      	ldr	r2, [r3, #64]	; 0x40
2000e77c:	4608      	mov	r0, r1
2000e77e:	b16a      	cbz	r2, 2000e79c <prvCopyDataFromQueue+0x26>
2000e780:	68dc      	ldr	r4, [r3, #12]
2000e782:	6899      	ldr	r1, [r3, #8]
2000e784:	4414      	add	r4, r2
2000e786:	428c      	cmp	r4, r1
2000e788:	bf28      	it	cs
2000e78a:	6819      	ldrcs	r1, [r3, #0]
2000e78c:	60dc      	str	r4, [r3, #12]
2000e78e:	bf28      	it	cs
2000e790:	60d9      	strcs	r1, [r3, #12]
2000e792:	68d9      	ldr	r1, [r3, #12]
2000e794:	f85d 4b04 	ldr.w	r4, [sp], #4
2000e798:	f001 bc02 	b.w	2000ffa0 <memcpy>
2000e79c:	f85d 4b04 	ldr.w	r4, [sp], #4
2000e7a0:	4770      	bx	lr

2000e7a2 <prvUnlockQueue>:
2000e7a2:	b570      	push	{r4, r5, r6, lr}
2000e7a4:	4604      	mov	r4, r0
2000e7a6:	f001 f9a5 	bl	2000faf4 <vPortEnterCritical>
2000e7aa:	f894 5045 	ldrb.w	r5, [r4, #69]	; 0x45
2000e7ae:	f104 0624 	add.w	r6, r4, #36	; 0x24
2000e7b2:	b26d      	sxtb	r5, r5
2000e7b4:	2d00      	cmp	r5, #0
2000e7b6:	dc14      	bgt.n	2000e7e2 <prvUnlockQueue+0x40>
2000e7b8:	23ff      	movs	r3, #255	; 0xff
2000e7ba:	f884 3045 	strb.w	r3, [r4, #69]	; 0x45
2000e7be:	f001 f9bb 	bl	2000fb38 <vPortExitCritical>
2000e7c2:	f001 f997 	bl	2000faf4 <vPortEnterCritical>
2000e7c6:	f894 5044 	ldrb.w	r5, [r4, #68]	; 0x44
2000e7ca:	f104 0610 	add.w	r6, r4, #16
2000e7ce:	b26d      	sxtb	r5, r5
2000e7d0:	2d00      	cmp	r5, #0
2000e7d2:	dc12      	bgt.n	2000e7fa <prvUnlockQueue+0x58>
2000e7d4:	23ff      	movs	r3, #255	; 0xff
2000e7d6:	f884 3044 	strb.w	r3, [r4, #68]	; 0x44
2000e7da:	e8bd 4070 	ldmia.w	sp!, {r4, r5, r6, lr}
2000e7de:	f001 b9ab 	b.w	2000fb38 <vPortExitCritical>
2000e7e2:	6a63      	ldr	r3, [r4, #36]	; 0x24
2000e7e4:	2b00      	cmp	r3, #0
2000e7e6:	d0e7      	beq.n	2000e7b8 <prvUnlockQueue+0x16>
2000e7e8:	4630      	mov	r0, r6
2000e7ea:	f000 fe4d 	bl	2000f488 <xTaskRemoveFromEventList>
2000e7ee:	b108      	cbz	r0, 2000e7f4 <prvUnlockQueue+0x52>
2000e7f0:	f000 fed6 	bl	2000f5a0 <vTaskMissedYield>
2000e7f4:	3d01      	subs	r5, #1
2000e7f6:	b26d      	sxtb	r5, r5
2000e7f8:	e7dc      	b.n	2000e7b4 <prvUnlockQueue+0x12>
2000e7fa:	6923      	ldr	r3, [r4, #16]
2000e7fc:	2b00      	cmp	r3, #0
2000e7fe:	d0e9      	beq.n	2000e7d4 <prvUnlockQueue+0x32>
2000e800:	4630      	mov	r0, r6
2000e802:	f000 fe41 	bl	2000f488 <xTaskRemoveFromEventList>
2000e806:	b108      	cbz	r0, 2000e80c <prvUnlockQueue+0x6a>
2000e808:	f000 feca 	bl	2000f5a0 <vTaskMissedYield>
2000e80c:	3d01      	subs	r5, #1
2000e80e:	b26d      	sxtb	r5, r5
2000e810:	e7de      	b.n	2000e7d0 <prvUnlockQueue+0x2e>
	...

2000e814 <xQueueGenericReset>:
2000e814:	b538      	push	{r3, r4, r5, lr}
2000e816:	460d      	mov	r5, r1
2000e818:	4604      	mov	r4, r0
2000e81a:	b940      	cbnz	r0, 2000e82e <xQueueGenericReset+0x1a>
2000e81c:	f04f 0350 	mov.w	r3, #80	; 0x50
2000e820:	f383 8811 	msr	BASEPRI, r3
2000e824:	f3bf 8f6f 	isb	sy
2000e828:	f3bf 8f4f 	dsb	sy
2000e82c:	e7fe      	b.n	2000e82c <xQueueGenericReset+0x18>
2000e82e:	f001 f961 	bl	2000faf4 <vPortEnterCritical>
2000e832:	e9d4 310f 	ldrd	r3, r1, [r4, #60]	; 0x3c
2000e836:	6822      	ldr	r2, [r4, #0]
2000e838:	6062      	str	r2, [r4, #4]
2000e83a:	434b      	muls	r3, r1
2000e83c:	18d0      	adds	r0, r2, r3
2000e83e:	1a5b      	subs	r3, r3, r1
2000e840:	4413      	add	r3, r2
2000e842:	60a0      	str	r0, [r4, #8]
2000e844:	60e3      	str	r3, [r4, #12]
2000e846:	2000      	movs	r0, #0
2000e848:	23ff      	movs	r3, #255	; 0xff
2000e84a:	63a0      	str	r0, [r4, #56]	; 0x38
2000e84c:	f884 3044 	strb.w	r3, [r4, #68]	; 0x44
2000e850:	f884 3045 	strb.w	r3, [r4, #69]	; 0x45
2000e854:	b995      	cbnz	r5, 2000e87c <xQueueGenericReset+0x68>
2000e856:	6923      	ldr	r3, [r4, #16]
2000e858:	b163      	cbz	r3, 2000e874 <xQueueGenericReset+0x60>
2000e85a:	f104 0010 	add.w	r0, r4, #16
2000e85e:	f000 fe13 	bl	2000f488 <xTaskRemoveFromEventList>
2000e862:	b138      	cbz	r0, 2000e874 <xQueueGenericReset+0x60>
2000e864:	4b0a      	ldr	r3, [pc, #40]	; (2000e890 <xQueueGenericReset+0x7c>)
2000e866:	f04f 5280 	mov.w	r2, #268435456	; 0x10000000
2000e86a:	601a      	str	r2, [r3, #0]
2000e86c:	f3bf 8f4f 	dsb	sy
2000e870:	f3bf 8f6f 	isb	sy
2000e874:	f001 f960 	bl	2000fb38 <vPortExitCritical>
2000e878:	2001      	movs	r0, #1
2000e87a:	bd38      	pop	{r3, r4, r5, pc}
2000e87c:	f104 0010 	add.w	r0, r4, #16
2000e880:	f7ff fef8 	bl	2000e674 <vListInitialise>
2000e884:	f104 0024 	add.w	r0, r4, #36	; 0x24
2000e888:	f7ff fef4 	bl	2000e674 <vListInitialise>
2000e88c:	e7f2      	b.n	2000e874 <xQueueGenericReset+0x60>
2000e88e:	bf00      	nop
2000e890:	e000ed04 	.word	0xe000ed04

2000e894 <xQueueGenericCreateStatic>:
2000e894:	b513      	push	{r0, r1, r4, lr}
2000e896:	461c      	mov	r4, r3
2000e898:	b940      	cbnz	r0, 2000e8ac <xQueueGenericCreateStatic+0x18>
2000e89a:	f04f 0350 	mov.w	r3, #80	; 0x50
2000e89e:	f383 8811 	msr	BASEPRI, r3
2000e8a2:	f3bf 8f6f 	isb	sy
2000e8a6:	f3bf 8f4f 	dsb	sy
2000e8aa:	e7fe      	b.n	2000e8aa <xQueueGenericCreateStatic+0x16>
2000e8ac:	b943      	cbnz	r3, 2000e8c0 <xQueueGenericCreateStatic+0x2c>
2000e8ae:	f04f 0350 	mov.w	r3, #80	; 0x50
2000e8b2:	f383 8811 	msr	BASEPRI, r3
2000e8b6:	f3bf 8f6f 	isb	sy
2000e8ba:	f3bf 8f4f 	dsb	sy
2000e8be:	e7fe      	b.n	2000e8be <xQueueGenericCreateStatic+0x2a>
2000e8c0:	b14a      	cbz	r2, 2000e8d6 <xQueueGenericCreateStatic+0x42>
2000e8c2:	b991      	cbnz	r1, 2000e8ea <xQueueGenericCreateStatic+0x56>
2000e8c4:	f04f 0350 	mov.w	r3, #80	; 0x50
2000e8c8:	f383 8811 	msr	BASEPRI, r3
2000e8cc:	f3bf 8f6f 	isb	sy
2000e8d0:	f3bf 8f4f 	dsb	sy
2000e8d4:	e7fe      	b.n	2000e8d4 <xQueueGenericCreateStatic+0x40>
2000e8d6:	b141      	cbz	r1, 2000e8ea <xQueueGenericCreateStatic+0x56>
2000e8d8:	f04f 0350 	mov.w	r3, #80	; 0x50
2000e8dc:	f383 8811 	msr	BASEPRI, r3
2000e8e0:	f3bf 8f6f 	isb	sy
2000e8e4:	f3bf 8f4f 	dsb	sy
2000e8e8:	e7fe      	b.n	2000e8e8 <xQueueGenericCreateStatic+0x54>
2000e8ea:	2350      	movs	r3, #80	; 0x50
2000e8ec:	9301      	str	r3, [sp, #4]
2000e8ee:	9b01      	ldr	r3, [sp, #4]
2000e8f0:	2b50      	cmp	r3, #80	; 0x50
2000e8f2:	d008      	beq.n	2000e906 <xQueueGenericCreateStatic+0x72>
2000e8f4:	f04f 0350 	mov.w	r3, #80	; 0x50
2000e8f8:	f383 8811 	msr	BASEPRI, r3
2000e8fc:	f3bf 8f6f 	isb	sy
2000e900:	f3bf 8f4f 	dsb	sy
2000e904:	e7fe      	b.n	2000e904 <xQueueGenericCreateStatic+0x70>
2000e906:	2900      	cmp	r1, #0
2000e908:	bf08      	it	eq
2000e90a:	4622      	moveq	r2, r4
2000e90c:	9b01      	ldr	r3, [sp, #4]
2000e90e:	6022      	str	r2, [r4, #0]
2000e910:	2301      	movs	r3, #1
2000e912:	e9c4 010f 	strd	r0, r1, [r4, #60]	; 0x3c
2000e916:	f884 3046 	strb.w	r3, [r4, #70]	; 0x46
2000e91a:	4619      	mov	r1, r3
2000e91c:	4620      	mov	r0, r4
2000e91e:	f7ff ff79 	bl	2000e814 <xQueueGenericReset>
2000e922:	f89d 3010 	ldrb.w	r3, [sp, #16]
2000e926:	f884 304c 	strb.w	r3, [r4, #76]	; 0x4c
2000e92a:	4620      	mov	r0, r4
2000e92c:	b002      	add	sp, #8
2000e92e:	bd10      	pop	{r4, pc}

2000e930 <xQueueGenericSend>:
2000e930:	e92d 47ff 	stmdb	sp!, {r0, r1, r2, r3, r4, r5, r6, r7, r8, r9, sl, lr}
2000e934:	4688      	mov	r8, r1
2000e936:	9201      	str	r2, [sp, #4]
2000e938:	461f      	mov	r7, r3
2000e93a:	4604      	mov	r4, r0
2000e93c:	b940      	cbnz	r0, 2000e950 <xQueueGenericSend+0x20>
2000e93e:	f04f 0350 	mov.w	r3, #80	; 0x50
2000e942:	f383 8811 	msr	BASEPRI, r3
2000e946:	f3bf 8f6f 	isb	sy
2000e94a:	f3bf 8f4f 	dsb	sy
2000e94e:	e7fe      	b.n	2000e94e <xQueueGenericSend+0x1e>
2000e950:	b951      	cbnz	r1, 2000e968 <xQueueGenericSend+0x38>
2000e952:	6c03      	ldr	r3, [r0, #64]	; 0x40
2000e954:	b143      	cbz	r3, 2000e968 <xQueueGenericSend+0x38>
2000e956:	f04f 0350 	mov.w	r3, #80	; 0x50
2000e95a:	f383 8811 	msr	BASEPRI, r3
2000e95e:	f3bf 8f6f 	isb	sy
2000e962:	f3bf 8f4f 	dsb	sy
2000e966:	e7fe      	b.n	2000e966 <xQueueGenericSend+0x36>
2000e968:	2f02      	cmp	r7, #2
2000e96a:	d10b      	bne.n	2000e984 <xQueueGenericSend+0x54>
2000e96c:	6be3      	ldr	r3, [r4, #60]	; 0x3c
2000e96e:	2b01      	cmp	r3, #1
2000e970:	d008      	beq.n	2000e984 <xQueueGenericSend+0x54>
2000e972:	f04f 0350 	mov.w	r3, #80	; 0x50
2000e976:	f383 8811 	msr	BASEPRI, r3
2000e97a:	f3bf 8f6f 	isb	sy
2000e97e:	f3bf 8f4f 	dsb	sy
2000e982:	e7fe      	b.n	2000e982 <xQueueGenericSend+0x52>
2000e984:	f000 fe12 	bl	2000f5ac <xTaskGetSchedulerState>
2000e988:	4606      	mov	r6, r0
2000e98a:	b950      	cbnz	r0, 2000e9a2 <xQueueGenericSend+0x72>
2000e98c:	9b01      	ldr	r3, [sp, #4]
2000e98e:	b14b      	cbz	r3, 2000e9a4 <xQueueGenericSend+0x74>
2000e990:	f04f 0350 	mov.w	r3, #80	; 0x50
2000e994:	f383 8811 	msr	BASEPRI, r3
2000e998:	f3bf 8f6f 	isb	sy
2000e99c:	f3bf 8f4f 	dsb	sy
2000e9a0:	e7fe      	b.n	2000e9a0 <xQueueGenericSend+0x70>
2000e9a2:	2600      	movs	r6, #0
2000e9a4:	f8df a0e8 	ldr.w	sl, [pc, #232]	; 2000ea90 <xQueueGenericSend+0x160>
2000e9a8:	f04f 0900 	mov.w	r9, #0
2000e9ac:	e037      	b.n	2000ea1e <xQueueGenericSend+0xee>
2000e9ae:	9d01      	ldr	r5, [sp, #4]
2000e9b0:	b91d      	cbnz	r5, 2000e9ba <xQueueGenericSend+0x8a>
2000e9b2:	f001 f8c1 	bl	2000fb38 <vPortExitCritical>
2000e9b6:	2000      	movs	r0, #0
2000e9b8:	e050      	b.n	2000ea5c <xQueueGenericSend+0x12c>
2000e9ba:	b916      	cbnz	r6, 2000e9c2 <xQueueGenericSend+0x92>
2000e9bc:	a802      	add	r0, sp, #8
2000e9be:	f000 fda7 	bl	2000f510 <vTaskInternalSetTimeOutState>
2000e9c2:	f001 f8b9 	bl	2000fb38 <vPortExitCritical>
2000e9c6:	f000 fbaf 	bl	2000f128 <vTaskSuspendAll>
2000e9ca:	f001 f893 	bl	2000faf4 <vPortEnterCritical>
2000e9ce:	f894 3044 	ldrb.w	r3, [r4, #68]	; 0x44
2000e9d2:	2bff      	cmp	r3, #255	; 0xff
2000e9d4:	bf08      	it	eq
2000e9d6:	f884 9044 	strbeq.w	r9, [r4, #68]	; 0x44
2000e9da:	f894 3045 	ldrb.w	r3, [r4, #69]	; 0x45
2000e9de:	2bff      	cmp	r3, #255	; 0xff
2000e9e0:	bf08      	it	eq
2000e9e2:	f884 9045 	strbeq.w	r9, [r4, #69]	; 0x45
2000e9e6:	f001 f8a7 	bl	2000fb38 <vPortExitCritical>
2000e9ea:	a901      	add	r1, sp, #4
2000e9ec:	a802      	add	r0, sp, #8
2000e9ee:	f000 fd9b 	bl	2000f528 <xTaskCheckForTimeOut>
2000e9f2:	2800      	cmp	r0, #0
2000e9f4:	d146      	bne.n	2000ea84 <xQueueGenericSend+0x154>
2000e9f6:	f001 f87d 	bl	2000faf4 <vPortEnterCritical>
2000e9fa:	6ba2      	ldr	r2, [r4, #56]	; 0x38
2000e9fc:	6be3      	ldr	r3, [r4, #60]	; 0x3c
2000e9fe:	429a      	cmp	r2, r3
2000ea00:	d12f      	bne.n	2000ea62 <xQueueGenericSend+0x132>
2000ea02:	f001 f899 	bl	2000fb38 <vPortExitCritical>
2000ea06:	9901      	ldr	r1, [sp, #4]
2000ea08:	f104 0010 	add.w	r0, r4, #16
2000ea0c:	f000 fd04 	bl	2000f418 <vTaskPlaceOnEventList>
2000ea10:	4620      	mov	r0, r4
2000ea12:	f7ff fec6 	bl	2000e7a2 <prvUnlockQueue>
2000ea16:	f000 fc2b 	bl	2000f270 <xTaskResumeAll>
2000ea1a:	b350      	cbz	r0, 2000ea72 <xQueueGenericSend+0x142>
2000ea1c:	2601      	movs	r6, #1
2000ea1e:	f001 f869 	bl	2000faf4 <vPortEnterCritical>
2000ea22:	6ba2      	ldr	r2, [r4, #56]	; 0x38
2000ea24:	6be3      	ldr	r3, [r4, #60]	; 0x3c
2000ea26:	429a      	cmp	r2, r3
2000ea28:	d301      	bcc.n	2000ea2e <xQueueGenericSend+0xfe>
2000ea2a:	2f02      	cmp	r7, #2
2000ea2c:	d1bf      	bne.n	2000e9ae <xQueueGenericSend+0x7e>
2000ea2e:	463a      	mov	r2, r7
2000ea30:	4641      	mov	r1, r8
2000ea32:	4620      	mov	r0, r4
2000ea34:	f7ff fe6a 	bl	2000e70c <prvCopyDataToQueue>
2000ea38:	6a63      	ldr	r3, [r4, #36]	; 0x24
2000ea3a:	b11b      	cbz	r3, 2000ea44 <xQueueGenericSend+0x114>
2000ea3c:	f104 0024 	add.w	r0, r4, #36	; 0x24
2000ea40:	f000 fd22 	bl	2000f488 <xTaskRemoveFromEventList>
2000ea44:	b138      	cbz	r0, 2000ea56 <xQueueGenericSend+0x126>
2000ea46:	4b12      	ldr	r3, [pc, #72]	; (2000ea90 <xQueueGenericSend+0x160>)
2000ea48:	f04f 5280 	mov.w	r2, #268435456	; 0x10000000
2000ea4c:	601a      	str	r2, [r3, #0]
2000ea4e:	f3bf 8f4f 	dsb	sy
2000ea52:	f3bf 8f6f 	isb	sy
2000ea56:	f001 f86f 	bl	2000fb38 <vPortExitCritical>
2000ea5a:	2001      	movs	r0, #1
2000ea5c:	b004      	add	sp, #16
2000ea5e:	e8bd 87f0 	ldmia.w	sp!, {r4, r5, r6, r7, r8, r9, sl, pc}
2000ea62:	f001 f869 	bl	2000fb38 <vPortExitCritical>
2000ea66:	4620      	mov	r0, r4
2000ea68:	f7ff fe9b 	bl	2000e7a2 <prvUnlockQueue>
2000ea6c:	f000 fc00 	bl	2000f270 <xTaskResumeAll>
2000ea70:	e7d4      	b.n	2000ea1c <xQueueGenericSend+0xec>
2000ea72:	f04f 5380 	mov.w	r3, #268435456	; 0x10000000
2000ea76:	f8ca 3000 	str.w	r3, [sl]
2000ea7a:	f3bf 8f4f 	dsb	sy
2000ea7e:	f3bf 8f6f 	isb	sy
2000ea82:	e7cb      	b.n	2000ea1c <xQueueGenericSend+0xec>
2000ea84:	4620      	mov	r0, r4
2000ea86:	f7ff fe8c 	bl	2000e7a2 <prvUnlockQueue>
2000ea8a:	f000 fbf1 	bl	2000f270 <xTaskResumeAll>
2000ea8e:	e792      	b.n	2000e9b6 <xQueueGenericSend+0x86>
2000ea90:	e000ed04 	.word	0xe000ed04

2000ea94 <xQueueGenericSendFromISR>:
2000ea94:	e92d 43f8 	stmdb	sp!, {r3, r4, r5, r6, r7, r8, r9, lr}
2000ea98:	4689      	mov	r9, r1
2000ea9a:	4690      	mov	r8, r2
2000ea9c:	461f      	mov	r7, r3
2000ea9e:	4604      	mov	r4, r0
2000eaa0:	b940      	cbnz	r0, 2000eab4 <xQueueGenericSendFromISR+0x20>
2000eaa2:	f04f 0350 	mov.w	r3, #80	; 0x50
2000eaa6:	f383 8811 	msr	BASEPRI, r3
2000eaaa:	f3bf 8f6f 	isb	sy
2000eaae:	f3bf 8f4f 	dsb	sy
2000eab2:	e7fe      	b.n	2000eab2 <xQueueGenericSendFromISR+0x1e>
2000eab4:	b951      	cbnz	r1, 2000eacc <xQueueGenericSendFromISR+0x38>
2000eab6:	6c03      	ldr	r3, [r0, #64]	; 0x40
2000eab8:	b143      	cbz	r3, 2000eacc <xQueueGenericSendFromISR+0x38>
2000eaba:	f04f 0350 	mov.w	r3, #80	; 0x50
2000eabe:	f383 8811 	msr	BASEPRI, r3
2000eac2:	f3bf 8f6f 	isb	sy
2000eac6:	f3bf 8f4f 	dsb	sy
2000eaca:	e7fe      	b.n	2000eaca <xQueueGenericSendFromISR+0x36>
2000eacc:	2f02      	cmp	r7, #2
2000eace:	d10b      	bne.n	2000eae8 <xQueueGenericSendFromISR+0x54>
2000ead0:	6be3      	ldr	r3, [r4, #60]	; 0x3c
2000ead2:	2b01      	cmp	r3, #1
2000ead4:	d008      	beq.n	2000eae8 <xQueueGenericSendFromISR+0x54>
2000ead6:	f04f 0350 	mov.w	r3, #80	; 0x50
2000eada:	f383 8811 	msr	BASEPRI, r3
2000eade:	f3bf 8f6f 	isb	sy
2000eae2:	f3bf 8f4f 	dsb	sy
2000eae6:	e7fe      	b.n	2000eae6 <xQueueGenericSendFromISR+0x52>
2000eae8:	f001 f920 	bl	2000fd2c <vPortValidateInterruptPriority>
2000eaec:	f3ef 8611 	mrs	r6, BASEPRI
2000eaf0:	f04f 0350 	mov.w	r3, #80	; 0x50
2000eaf4:	f383 8811 	msr	BASEPRI, r3
2000eaf8:	f3bf 8f6f 	isb	sy
2000eafc:	f3bf 8f4f 	dsb	sy
2000eb00:	6ba2      	ldr	r2, [r4, #56]	; 0x38
2000eb02:	6be3      	ldr	r3, [r4, #60]	; 0x3c
2000eb04:	429a      	cmp	r2, r3
2000eb06:	d301      	bcc.n	2000eb0c <xQueueGenericSendFromISR+0x78>
2000eb08:	2f02      	cmp	r7, #2
2000eb0a:	d122      	bne.n	2000eb52 <xQueueGenericSendFromISR+0xbe>
2000eb0c:	f894 5045 	ldrb.w	r5, [r4, #69]	; 0x45
2000eb10:	463a      	mov	r2, r7
2000eb12:	b26d      	sxtb	r5, r5
2000eb14:	4649      	mov	r1, r9
2000eb16:	4620      	mov	r0, r4
2000eb18:	f7ff fdf8 	bl	2000e70c <prvCopyDataToQueue>
2000eb1c:	1c6b      	adds	r3, r5, #1
2000eb1e:	d113      	bne.n	2000eb48 <xQueueGenericSendFromISR+0xb4>
2000eb20:	6a63      	ldr	r3, [r4, #36]	; 0x24
2000eb22:	b90b      	cbnz	r3, 2000eb28 <xQueueGenericSendFromISR+0x94>
2000eb24:	2001      	movs	r0, #1
2000eb26:	e00b      	b.n	2000eb40 <xQueueGenericSendFromISR+0xac>
2000eb28:	f104 0024 	add.w	r0, r4, #36	; 0x24
2000eb2c:	f000 fcac 	bl	2000f488 <xTaskRemoveFromEventList>
2000eb30:	2800      	cmp	r0, #0
2000eb32:	d0f7      	beq.n	2000eb24 <xQueueGenericSendFromISR+0x90>
2000eb34:	f1b8 0f00 	cmp.w	r8, #0
2000eb38:	d0f4      	beq.n	2000eb24 <xQueueGenericSendFromISR+0x90>
2000eb3a:	2001      	movs	r0, #1
2000eb3c:	f8c8 0000 	str.w	r0, [r8]
2000eb40:	f386 8811 	msr	BASEPRI, r6
2000eb44:	e8bd 83f8 	ldmia.w	sp!, {r3, r4, r5, r6, r7, r8, r9, pc}
2000eb48:	3501      	adds	r5, #1
2000eb4a:	b26d      	sxtb	r5, r5
2000eb4c:	f884 5045 	strb.w	r5, [r4, #69]	; 0x45
2000eb50:	e7e8      	b.n	2000eb24 <xQueueGenericSendFromISR+0x90>
2000eb52:	2000      	movs	r0, #0
2000eb54:	e7f4      	b.n	2000eb40 <xQueueGenericSendFromISR+0xac>
	...

2000eb58 <xQueueReceive>:
2000eb58:	e92d 43f0 	stmdb	sp!, {r4, r5, r6, r7, r8, r9, lr}
2000eb5c:	b085      	sub	sp, #20
2000eb5e:	460f      	mov	r7, r1
2000eb60:	9201      	str	r2, [sp, #4]
2000eb62:	4604      	mov	r4, r0
2000eb64:	b940      	cbnz	r0, 2000eb78 <xQueueReceive+0x20>
2000eb66:	f04f 0350 	mov.w	r3, #80	; 0x50
2000eb6a:	f383 8811 	msr	BASEPRI, r3
2000eb6e:	f3bf 8f6f 	isb	sy
2000eb72:	f3bf 8f4f 	dsb	sy
2000eb76:	e7fe      	b.n	2000eb76 <xQueueReceive+0x1e>
2000eb78:	b951      	cbnz	r1, 2000eb90 <xQueueReceive+0x38>
2000eb7a:	6c03      	ldr	r3, [r0, #64]	; 0x40
2000eb7c:	b143      	cbz	r3, 2000eb90 <xQueueReceive+0x38>
2000eb7e:	f04f 0350 	mov.w	r3, #80	; 0x50
2000eb82:	f383 8811 	msr	BASEPRI, r3
2000eb86:	f3bf 8f6f 	isb	sy
2000eb8a:	f3bf 8f4f 	dsb	sy
2000eb8e:	e7fe      	b.n	2000eb8e <xQueueReceive+0x36>
2000eb90:	f000 fd0c 	bl	2000f5ac <xTaskGetSchedulerState>
2000eb94:	4606      	mov	r6, r0
2000eb96:	b950      	cbnz	r0, 2000ebae <xQueueReceive+0x56>
2000eb98:	9b01      	ldr	r3, [sp, #4]
2000eb9a:	b14b      	cbz	r3, 2000ebb0 <xQueueReceive+0x58>
2000eb9c:	f04f 0350 	mov.w	r3, #80	; 0x50
2000eba0:	f383 8811 	msr	BASEPRI, r3
2000eba4:	f3bf 8f6f 	isb	sy
2000eba8:	f3bf 8f4f 	dsb	sy
2000ebac:	e7fe      	b.n	2000ebac <xQueueReceive+0x54>
2000ebae:	2600      	movs	r6, #0
2000ebb0:	f8df 90e0 	ldr.w	r9, [pc, #224]	; 2000ec94 <xQueueReceive+0x13c>
2000ebb4:	f04f 0800 	mov.w	r8, #0
2000ebb8:	e03b      	b.n	2000ec32 <xQueueReceive+0xda>
2000ebba:	9d01      	ldr	r5, [sp, #4]
2000ebbc:	b91d      	cbnz	r5, 2000ebc6 <xQueueReceive+0x6e>
2000ebbe:	f000 ffbb 	bl	2000fb38 <vPortExitCritical>
2000ebc2:	2000      	movs	r0, #0
2000ebc4:	e052      	b.n	2000ec6c <xQueueReceive+0x114>
2000ebc6:	b916      	cbnz	r6, 2000ebce <xQueueReceive+0x76>
2000ebc8:	a802      	add	r0, sp, #8
2000ebca:	f000 fca1 	bl	2000f510 <vTaskInternalSetTimeOutState>
2000ebce:	f000 ffb3 	bl	2000fb38 <vPortExitCritical>
2000ebd2:	f000 faa9 	bl	2000f128 <vTaskSuspendAll>
2000ebd6:	f000 ff8d 	bl	2000faf4 <vPortEnterCritical>
2000ebda:	f894 3044 	ldrb.w	r3, [r4, #68]	; 0x44
2000ebde:	2bff      	cmp	r3, #255	; 0xff
2000ebe0:	bf08      	it	eq
2000ebe2:	f884 8044 	strbeq.w	r8, [r4, #68]	; 0x44
2000ebe6:	f894 3045 	ldrb.w	r3, [r4, #69]	; 0x45
2000ebea:	2bff      	cmp	r3, #255	; 0xff
2000ebec:	bf08      	it	eq
2000ebee:	f884 8045 	strbeq.w	r8, [r4, #69]	; 0x45
2000ebf2:	f000 ffa1 	bl	2000fb38 <vPortExitCritical>
2000ebf6:	a901      	add	r1, sp, #4
2000ebf8:	a802      	add	r0, sp, #8
2000ebfa:	f000 fc95 	bl	2000f528 <xTaskCheckForTimeOut>
2000ebfe:	2800      	cmp	r0, #0
2000ec00:	d13d      	bne.n	2000ec7e <xQueueReceive+0x126>
2000ec02:	4620      	mov	r0, r4
2000ec04:	f7ff fd77 	bl	2000e6f6 <prvIsQueueEmpty>
2000ec08:	b398      	cbz	r0, 2000ec72 <xQueueReceive+0x11a>
2000ec0a:	9901      	ldr	r1, [sp, #4]
2000ec0c:	f104 0024 	add.w	r0, r4, #36	; 0x24
2000ec10:	f000 fc02 	bl	2000f418 <vTaskPlaceOnEventList>
2000ec14:	4620      	mov	r0, r4
2000ec16:	f7ff fdc4 	bl	2000e7a2 <prvUnlockQueue>
2000ec1a:	f000 fb29 	bl	2000f270 <xTaskResumeAll>
2000ec1e:	b938      	cbnz	r0, 2000ec30 <xQueueReceive+0xd8>
2000ec20:	f04f 5380 	mov.w	r3, #268435456	; 0x10000000
2000ec24:	f8c9 3000 	str.w	r3, [r9]
2000ec28:	f3bf 8f4f 	dsb	sy
2000ec2c:	f3bf 8f6f 	isb	sy
2000ec30:	2601      	movs	r6, #1
2000ec32:	f000 ff5f 	bl	2000faf4 <vPortEnterCritical>
2000ec36:	6ba5      	ldr	r5, [r4, #56]	; 0x38
2000ec38:	2d00      	cmp	r5, #0
2000ec3a:	d0be      	beq.n	2000ebba <xQueueReceive+0x62>
2000ec3c:	4639      	mov	r1, r7
2000ec3e:	4620      	mov	r0, r4
2000ec40:	3d01      	subs	r5, #1
2000ec42:	f7ff fd98 	bl	2000e776 <prvCopyDataFromQueue>
2000ec46:	63a5      	str	r5, [r4, #56]	; 0x38
2000ec48:	6923      	ldr	r3, [r4, #16]
2000ec4a:	b163      	cbz	r3, 2000ec66 <xQueueReceive+0x10e>
2000ec4c:	f104 0010 	add.w	r0, r4, #16
2000ec50:	f000 fc1a 	bl	2000f488 <xTaskRemoveFromEventList>
2000ec54:	b138      	cbz	r0, 2000ec66 <xQueueReceive+0x10e>
2000ec56:	4b0f      	ldr	r3, [pc, #60]	; (2000ec94 <xQueueReceive+0x13c>)
2000ec58:	f04f 5280 	mov.w	r2, #268435456	; 0x10000000
2000ec5c:	601a      	str	r2, [r3, #0]
2000ec5e:	f3bf 8f4f 	dsb	sy
2000ec62:	f3bf 8f6f 	isb	sy
2000ec66:	f000 ff67 	bl	2000fb38 <vPortExitCritical>
2000ec6a:	2001      	movs	r0, #1
2000ec6c:	b005      	add	sp, #20
2000ec6e:	e8bd 83f0 	ldmia.w	sp!, {r4, r5, r6, r7, r8, r9, pc}
2000ec72:	4620      	mov	r0, r4
2000ec74:	f7ff fd95 	bl	2000e7a2 <prvUnlockQueue>
2000ec78:	f000 fafa 	bl	2000f270 <xTaskResumeAll>
2000ec7c:	e7d8      	b.n	2000ec30 <xQueueReceive+0xd8>
2000ec7e:	4620      	mov	r0, r4
2000ec80:	f7ff fd8f 	bl	2000e7a2 <prvUnlockQueue>
2000ec84:	f000 faf4 	bl	2000f270 <xTaskResumeAll>
2000ec88:	4620      	mov	r0, r4
2000ec8a:	f7ff fd34 	bl	2000e6f6 <prvIsQueueEmpty>
2000ec8e:	2800      	cmp	r0, #0
2000ec90:	d0ce      	beq.n	2000ec30 <xQueueReceive+0xd8>
2000ec92:	e796      	b.n	2000ebc2 <xQueueReceive+0x6a>
2000ec94:	e000ed04 	.word	0xe000ed04

2000ec98 <vQueueAddToRegistry>:
2000ec98:	b530      	push	{r4, r5, lr}
2000ec9a:	4a07      	ldr	r2, [pc, #28]	; (2000ecb8 <vQueueAddToRegistry+0x20>)
2000ec9c:	2300      	movs	r3, #0
2000ec9e:	f852 5033 	ldr.w	r5, [r2, r3, lsl #3]
2000eca2:	eb02 04c3 	add.w	r4, r2, r3, lsl #3
2000eca6:	b91d      	cbnz	r5, 2000ecb0 <vQueueAddToRegistry+0x18>
2000eca8:	f842 1033 	str.w	r1, [r2, r3, lsl #3]
2000ecac:	6060      	str	r0, [r4, #4]
2000ecae:	bd30      	pop	{r4, r5, pc}
2000ecb0:	3301      	adds	r3, #1
2000ecb2:	2b08      	cmp	r3, #8
2000ecb4:	d1f3      	bne.n	2000ec9e <vQueueAddToRegistry+0x6>
2000ecb6:	e7fa      	b.n	2000ecae <vQueueAddToRegistry+0x16>
2000ecb8:	20014e9c 	.word	0x20014e9c

2000ecbc <vQueueWaitForMessageRestricted>:
2000ecbc:	b570      	push	{r4, r5, r6, lr}
2000ecbe:	4604      	mov	r4, r0
2000ecc0:	460d      	mov	r5, r1
2000ecc2:	4616      	mov	r6, r2
2000ecc4:	f000 ff16 	bl	2000faf4 <vPortEnterCritical>
2000ecc8:	f894 3044 	ldrb.w	r3, [r4, #68]	; 0x44
2000eccc:	2bff      	cmp	r3, #255	; 0xff
2000ecce:	bf04      	itt	eq
2000ecd0:	2300      	moveq	r3, #0
2000ecd2:	f884 3044 	strbeq.w	r3, [r4, #68]	; 0x44
2000ecd6:	f894 3045 	ldrb.w	r3, [r4, #69]	; 0x45
2000ecda:	2bff      	cmp	r3, #255	; 0xff
2000ecdc:	bf04      	itt	eq
2000ecde:	2300      	moveq	r3, #0
2000ece0:	f884 3045 	strbeq.w	r3, [r4, #69]	; 0x45
2000ece4:	f000 ff28 	bl	2000fb38 <vPortExitCritical>
2000ece8:	6ba3      	ldr	r3, [r4, #56]	; 0x38
2000ecea:	b92b      	cbnz	r3, 2000ecf8 <vQueueWaitForMessageRestricted+0x3c>
2000ecec:	4632      	mov	r2, r6
2000ecee:	4629      	mov	r1, r5
2000ecf0:	f104 0024 	add.w	r0, r4, #36	; 0x24
2000ecf4:	f000 fbaa 	bl	2000f44c <vTaskPlaceOnEventListRestricted>
2000ecf8:	4620      	mov	r0, r4
2000ecfa:	e8bd 4070 	ldmia.w	sp!, {r4, r5, r6, lr}
2000ecfe:	f7ff bd50 	b.w	2000e7a2 <prvUnlockQueue>
	...

2000ed04 <prvAddNewTaskToReadyList>:
2000ed04:	e92d 41f0 	stmdb	sp!, {r4, r5, r6, r7, r8, lr}
2000ed08:	4604      	mov	r4, r0
2000ed0a:	f000 fef3 	bl	2000faf4 <vPortEnterCritical>
2000ed0e:	4b2f      	ldr	r3, [pc, #188]	; (2000edcc <prvAddNewTaskToReadyList+0xc8>)
2000ed10:	4d2f      	ldr	r5, [pc, #188]	; (2000edd0 <prvAddNewTaskToReadyList+0xcc>)
2000ed12:	681a      	ldr	r2, [r3, #0]
2000ed14:	4f2f      	ldr	r7, [pc, #188]	; (2000edd4 <prvAddNewTaskToReadyList+0xd0>)
2000ed16:	3201      	adds	r2, #1
2000ed18:	601a      	str	r2, [r3, #0]
2000ed1a:	682e      	ldr	r6, [r5, #0]
2000ed1c:	2e00      	cmp	r6, #0
2000ed1e:	d149      	bne.n	2000edb4 <prvAddNewTaskToReadyList+0xb0>
2000ed20:	602c      	str	r4, [r5, #0]
2000ed22:	681b      	ldr	r3, [r3, #0]
2000ed24:	2b01      	cmp	r3, #1
2000ed26:	d11f      	bne.n	2000ed68 <prvAddNewTaskToReadyList+0x64>
2000ed28:	46b8      	mov	r8, r7
2000ed2a:	4640      	mov	r0, r8
2000ed2c:	3601      	adds	r6, #1
2000ed2e:	f7ff fca1 	bl	2000e674 <vListInitialise>
2000ed32:	2e38      	cmp	r6, #56	; 0x38
2000ed34:	f108 0814 	add.w	r8, r8, #20
2000ed38:	d1f7      	bne.n	2000ed2a <prvAddNewTaskToReadyList+0x26>
2000ed3a:	f8df 80c4 	ldr.w	r8, [pc, #196]	; 2000ee00 <prvAddNewTaskToReadyList+0xfc>
2000ed3e:	4e26      	ldr	r6, [pc, #152]	; (2000edd8 <prvAddNewTaskToReadyList+0xd4>)
2000ed40:	4640      	mov	r0, r8
2000ed42:	f7ff fc97 	bl	2000e674 <vListInitialise>
2000ed46:	4630      	mov	r0, r6
2000ed48:	f7ff fc94 	bl	2000e674 <vListInitialise>
2000ed4c:	4823      	ldr	r0, [pc, #140]	; (2000eddc <prvAddNewTaskToReadyList+0xd8>)
2000ed4e:	f7ff fc91 	bl	2000e674 <vListInitialise>
2000ed52:	4823      	ldr	r0, [pc, #140]	; (2000ede0 <prvAddNewTaskToReadyList+0xdc>)
2000ed54:	f7ff fc8e 	bl	2000e674 <vListInitialise>
2000ed58:	4822      	ldr	r0, [pc, #136]	; (2000ede4 <prvAddNewTaskToReadyList+0xe0>)
2000ed5a:	f7ff fc8b 	bl	2000e674 <vListInitialise>
2000ed5e:	4b22      	ldr	r3, [pc, #136]	; (2000ede8 <prvAddNewTaskToReadyList+0xe4>)
2000ed60:	f8c3 8000 	str.w	r8, [r3]
2000ed64:	4b21      	ldr	r3, [pc, #132]	; (2000edec <prvAddNewTaskToReadyList+0xe8>)
2000ed66:	601e      	str	r6, [r3, #0]
2000ed68:	4a21      	ldr	r2, [pc, #132]	; (2000edf0 <prvAddNewTaskToReadyList+0xec>)
2000ed6a:	6813      	ldr	r3, [r2, #0]
2000ed6c:	3301      	adds	r3, #1
2000ed6e:	6013      	str	r3, [r2, #0]
2000ed70:	4a20      	ldr	r2, [pc, #128]	; (2000edf4 <prvAddNewTaskToReadyList+0xf0>)
2000ed72:	6463      	str	r3, [r4, #68]	; 0x44
2000ed74:	6811      	ldr	r1, [r2, #0]
2000ed76:	6ae3      	ldr	r3, [r4, #44]	; 0x2c
2000ed78:	2014      	movs	r0, #20
2000ed7a:	428b      	cmp	r3, r1
2000ed7c:	fb00 7003 	mla	r0, r0, r3, r7
2000ed80:	f104 0104 	add.w	r1, r4, #4
2000ed84:	bf88      	it	hi
2000ed86:	6013      	strhi	r3, [r2, #0]
2000ed88:	f7ff fc82 	bl	2000e690 <vListInsertEnd>
2000ed8c:	f000 fed4 	bl	2000fb38 <vPortExitCritical>
2000ed90:	4b19      	ldr	r3, [pc, #100]	; (2000edf8 <prvAddNewTaskToReadyList+0xf4>)
2000ed92:	681b      	ldr	r3, [r3, #0]
2000ed94:	b163      	cbz	r3, 2000edb0 <prvAddNewTaskToReadyList+0xac>
2000ed96:	682b      	ldr	r3, [r5, #0]
2000ed98:	6ada      	ldr	r2, [r3, #44]	; 0x2c
2000ed9a:	6ae3      	ldr	r3, [r4, #44]	; 0x2c
2000ed9c:	429a      	cmp	r2, r3
2000ed9e:	d207      	bcs.n	2000edb0 <prvAddNewTaskToReadyList+0xac>
2000eda0:	4b16      	ldr	r3, [pc, #88]	; (2000edfc <prvAddNewTaskToReadyList+0xf8>)
2000eda2:	f04f 5280 	mov.w	r2, #268435456	; 0x10000000
2000eda6:	601a      	str	r2, [r3, #0]
2000eda8:	f3bf 8f4f 	dsb	sy
2000edac:	f3bf 8f6f 	isb	sy
2000edb0:	e8bd 81f0 	ldmia.w	sp!, {r4, r5, r6, r7, r8, pc}
2000edb4:	4b10      	ldr	r3, [pc, #64]	; (2000edf8 <prvAddNewTaskToReadyList+0xf4>)
2000edb6:	681b      	ldr	r3, [r3, #0]
2000edb8:	2b00      	cmp	r3, #0
2000edba:	d1d5      	bne.n	2000ed68 <prvAddNewTaskToReadyList+0x64>
2000edbc:	682b      	ldr	r3, [r5, #0]
2000edbe:	6ada      	ldr	r2, [r3, #44]	; 0x2c
2000edc0:	6ae3      	ldr	r3, [r4, #44]	; 0x2c
2000edc2:	429a      	cmp	r2, r3
2000edc4:	bf98      	it	ls
2000edc6:	602c      	strls	r4, [r5, #0]
2000edc8:	e7ce      	b.n	2000ed68 <prvAddNewTaskToReadyList+0x64>
2000edca:	bf00      	nop
2000edcc:	20011064 	.word	0x20011064
2000edd0:	20010bf8 	.word	0x20010bf8
2000edd4:	20010c04 	.word	0x20010c04
2000edd8:	20011090 	.word	0x20011090
2000eddc:	200110ac 	.word	0x200110ac
2000ede0:	200110d8 	.word	0x200110d8
2000ede4:	200110c4 	.word	0x200110c4
2000ede8:	20010bfc 	.word	0x20010bfc
2000edec:	20010c00 	.word	0x20010c00
2000edf0:	20011074 	.word	0x20011074
2000edf4:	20011078 	.word	0x20011078
2000edf8:	200110c0 	.word	0x200110c0
2000edfc:	e000ed04 	.word	0xe000ed04
2000ee00:	2001107c 	.word	0x2001107c

2000ee04 <prvResetNextTaskUnblockTime>:
2000ee04:	4a06      	ldr	r2, [pc, #24]	; (2000ee20 <prvResetNextTaskUnblockTime+0x1c>)
2000ee06:	6813      	ldr	r3, [r2, #0]
2000ee08:	6819      	ldr	r1, [r3, #0]
2000ee0a:	4b06      	ldr	r3, [pc, #24]	; (2000ee24 <prvResetNextTaskUnblockTime+0x20>)
2000ee0c:	b919      	cbnz	r1, 2000ee16 <prvResetNextTaskUnblockTime+0x12>
2000ee0e:	f04f 32ff 	mov.w	r2, #4294967295
2000ee12:	601a      	str	r2, [r3, #0]
2000ee14:	4770      	bx	lr
2000ee16:	6812      	ldr	r2, [r2, #0]
2000ee18:	68d2      	ldr	r2, [r2, #12]
2000ee1a:	68d2      	ldr	r2, [r2, #12]
2000ee1c:	6852      	ldr	r2, [r2, #4]
2000ee1e:	e7f8      	b.n	2000ee12 <prvResetNextTaskUnblockTime+0xe>
2000ee20:	20010bfc 	.word	0x20010bfc
2000ee24:	200110a4 	.word	0x200110a4

2000ee28 <prvInitialiseNewTask.isra.0>:
2000ee28:	e92d 47f0 	stmdb	sp!, {r4, r5, r6, r7, r8, r9, sl, lr}
2000ee2c:	e9dd 8409 	ldrd	r8, r4, [sp, #36]	; 0x24
2000ee30:	ea4f 0982 	mov.w	r9, r2, lsl #2
2000ee34:	464a      	mov	r2, r9
2000ee36:	4606      	mov	r6, r0
2000ee38:	460d      	mov	r5, r1
2000ee3a:	6b20      	ldr	r0, [r4, #48]	; 0x30
2000ee3c:	21a5      	movs	r1, #165	; 0xa5
2000ee3e:	461f      	mov	r7, r3
2000ee40:	f001 f8bc 	bl	2000ffbc <memset>
2000ee44:	6b22      	ldr	r2, [r4, #48]	; 0x30
2000ee46:	f1a9 0904 	sub.w	r9, r9, #4
2000ee4a:	4491      	add	r9, r2
2000ee4c:	f029 0907 	bic.w	r9, r9, #7
2000ee50:	b3ad      	cbz	r5, 2000eebe <prvInitialiseNewTask.isra.0+0x96>
2000ee52:	1e6b      	subs	r3, r5, #1
2000ee54:	f104 0234 	add.w	r2, r4, #52	; 0x34
2000ee58:	350f      	adds	r5, #15
2000ee5a:	f813 1f01 	ldrb.w	r1, [r3, #1]!
2000ee5e:	f802 1b01 	strb.w	r1, [r2], #1
2000ee62:	7819      	ldrb	r1, [r3, #0]
2000ee64:	b109      	cbz	r1, 2000ee6a <prvInitialiseNewTask.isra.0+0x42>
2000ee66:	42ab      	cmp	r3, r5
2000ee68:	d1f7      	bne.n	2000ee5a <prvInitialiseNewTask.isra.0+0x32>
2000ee6a:	2300      	movs	r3, #0
2000ee6c:	f884 3043 	strb.w	r3, [r4, #67]	; 0x43
2000ee70:	9d08      	ldr	r5, [sp, #32]
2000ee72:	2d37      	cmp	r5, #55	; 0x37
2000ee74:	bf28      	it	cs
2000ee76:	2537      	movcs	r5, #55	; 0x37
2000ee78:	f04f 0a00 	mov.w	sl, #0
2000ee7c:	62e5      	str	r5, [r4, #44]	; 0x2c
2000ee7e:	64e5      	str	r5, [r4, #76]	; 0x4c
2000ee80:	1d20      	adds	r0, r4, #4
2000ee82:	f8c4 a050 	str.w	sl, [r4, #80]	; 0x50
2000ee86:	f7ff fc00 	bl	2000e68a <vListInitialiseItem>
2000ee8a:	f1c5 0538 	rsb	r5, r5, #56	; 0x38
2000ee8e:	f104 0018 	add.w	r0, r4, #24
2000ee92:	f7ff fbfa 	bl	2000e68a <vListInitialiseItem>
2000ee96:	f8c4 a054 	str.w	sl, [r4, #84]	; 0x54
2000ee9a:	6124      	str	r4, [r4, #16]
2000ee9c:	61a5      	str	r5, [r4, #24]
2000ee9e:	6264      	str	r4, [r4, #36]	; 0x24
2000eea0:	f884 a058 	strb.w	sl, [r4, #88]	; 0x58
2000eea4:	463a      	mov	r2, r7
2000eea6:	4631      	mov	r1, r6
2000eea8:	4648      	mov	r0, r9
2000eeaa:	f000 fdfb 	bl	2000faa4 <pxPortInitialiseStack>
2000eeae:	6020      	str	r0, [r4, #0]
2000eeb0:	f1b8 0f00 	cmp.w	r8, #0
2000eeb4:	d001      	beq.n	2000eeba <prvInitialiseNewTask.isra.0+0x92>
2000eeb6:	f8c8 4000 	str.w	r4, [r8]
2000eeba:	e8bd 87f0 	ldmia.w	sp!, {r4, r5, r6, r7, r8, r9, sl, pc}
2000eebe:	f884 5034 	strb.w	r5, [r4, #52]	; 0x34
2000eec2:	e7d5      	b.n	2000ee70 <prvInitialiseNewTask.isra.0+0x48>

2000eec4 <prvDeleteTCB>:
2000eec4:	b510      	push	{r4, lr}
2000eec6:	f890 3059 	ldrb.w	r3, [r0, #89]	; 0x59
2000eeca:	4604      	mov	r4, r0
2000eecc:	b93b      	cbnz	r3, 2000eede <prvDeleteTCB+0x1a>
2000eece:	6b00      	ldr	r0, [r0, #48]	; 0x30
2000eed0:	f001 f80a 	bl	2000fee8 <vPortFree>
2000eed4:	4620      	mov	r0, r4
2000eed6:	e8bd 4010 	ldmia.w	sp!, {r4, lr}
2000eeda:	f001 b805 	b.w	2000fee8 <vPortFree>
2000eede:	2b01      	cmp	r3, #1
2000eee0:	d0f9      	beq.n	2000eed6 <prvDeleteTCB+0x12>
2000eee2:	2b02      	cmp	r3, #2
2000eee4:	d008      	beq.n	2000eef8 <prvDeleteTCB+0x34>
2000eee6:	f04f 0350 	mov.w	r3, #80	; 0x50
2000eeea:	f383 8811 	msr	BASEPRI, r3
2000eeee:	f3bf 8f6f 	isb	sy
2000eef2:	f3bf 8f4f 	dsb	sy
2000eef6:	e7fe      	b.n	2000eef6 <prvDeleteTCB+0x32>
2000eef8:	bd10      	pop	{r4, pc}
	...

2000eefc <prvIdleTask>:
2000eefc:	b580      	push	{r7, lr}
2000eefe:	f8df 805c 	ldr.w	r8, [pc, #92]	; 2000ef5c <prvIdleTask+0x60>
2000ef02:	4f12      	ldr	r7, [pc, #72]	; (2000ef4c <prvIdleTask+0x50>)
2000ef04:	4c12      	ldr	r4, [pc, #72]	; (2000ef50 <prvIdleTask+0x54>)
2000ef06:	4d13      	ldr	r5, [pc, #76]	; (2000ef54 <prvIdleTask+0x58>)
2000ef08:	6823      	ldr	r3, [r4, #0]
2000ef0a:	b963      	cbnz	r3, 2000ef26 <prvIdleTask+0x2a>
2000ef0c:	4b12      	ldr	r3, [pc, #72]	; (2000ef58 <prvIdleTask+0x5c>)
2000ef0e:	681b      	ldr	r3, [r3, #0]
2000ef10:	2b01      	cmp	r3, #1
2000ef12:	d9f8      	bls.n	2000ef06 <prvIdleTask+0xa>
2000ef14:	f04f 5380 	mov.w	r3, #268435456	; 0x10000000
2000ef18:	f8c8 3000 	str.w	r3, [r8]
2000ef1c:	f3bf 8f4f 	dsb	sy
2000ef20:	f3bf 8f6f 	isb	sy
2000ef24:	e7ee      	b.n	2000ef04 <prvIdleTask+0x8>
2000ef26:	f000 fde5 	bl	2000faf4 <vPortEnterCritical>
2000ef2a:	68fb      	ldr	r3, [r7, #12]
2000ef2c:	68de      	ldr	r6, [r3, #12]
2000ef2e:	1d30      	adds	r0, r6, #4
2000ef30:	f7ff fbd1 	bl	2000e6d6 <uxListRemove>
2000ef34:	682b      	ldr	r3, [r5, #0]
2000ef36:	3b01      	subs	r3, #1
2000ef38:	602b      	str	r3, [r5, #0]
2000ef3a:	6823      	ldr	r3, [r4, #0]
2000ef3c:	3b01      	subs	r3, #1
2000ef3e:	6023      	str	r3, [r4, #0]
2000ef40:	f000 fdfa 	bl	2000fb38 <vPortExitCritical>
2000ef44:	4630      	mov	r0, r6
2000ef46:	f7ff ffbd 	bl	2000eec4 <prvDeleteTCB>
2000ef4a:	e7dd      	b.n	2000ef08 <prvIdleTask+0xc>
2000ef4c:	200110d8 	.word	0x200110d8
2000ef50:	20011068 	.word	0x20011068
2000ef54:	20011064 	.word	0x20011064
2000ef58:	20010c04 	.word	0x20010c04
2000ef5c:	e000ed04 	.word	0xe000ed04

2000ef60 <prvAddCurrentTaskToDelayedList>:
2000ef60:	b5f8      	push	{r3, r4, r5, r6, r7, lr}
2000ef62:	4b16      	ldr	r3, [pc, #88]	; (2000efbc <prvAddCurrentTaskToDelayedList+0x5c>)
2000ef64:	4e16      	ldr	r6, [pc, #88]	; (2000efc0 <prvAddCurrentTaskToDelayedList+0x60>)
2000ef66:	681d      	ldr	r5, [r3, #0]
2000ef68:	4604      	mov	r4, r0
2000ef6a:	6830      	ldr	r0, [r6, #0]
2000ef6c:	3004      	adds	r0, #4
2000ef6e:	460f      	mov	r7, r1
2000ef70:	f7ff fbb1 	bl	2000e6d6 <uxListRemove>
2000ef74:	1c63      	adds	r3, r4, #1
2000ef76:	4633      	mov	r3, r6
2000ef78:	d107      	bne.n	2000ef8a <prvAddCurrentTaskToDelayedList+0x2a>
2000ef7a:	b137      	cbz	r7, 2000ef8a <prvAddCurrentTaskToDelayedList+0x2a>
2000ef7c:	6831      	ldr	r1, [r6, #0]
2000ef7e:	4811      	ldr	r0, [pc, #68]	; (2000efc4 <prvAddCurrentTaskToDelayedList+0x64>)
2000ef80:	e8bd 40f8 	ldmia.w	sp!, {r3, r4, r5, r6, r7, lr}
2000ef84:	3104      	adds	r1, #4
2000ef86:	f7ff bb83 	b.w	2000e690 <vListInsertEnd>
2000ef8a:	681a      	ldr	r2, [r3, #0]
2000ef8c:	192c      	adds	r4, r5, r4
2000ef8e:	6054      	str	r4, [r2, #4]
2000ef90:	d307      	bcc.n	2000efa2 <prvAddCurrentTaskToDelayedList+0x42>
2000ef92:	4a0d      	ldr	r2, [pc, #52]	; (2000efc8 <prvAddCurrentTaskToDelayedList+0x68>)
2000ef94:	6810      	ldr	r0, [r2, #0]
2000ef96:	6819      	ldr	r1, [r3, #0]
2000ef98:	e8bd 40f8 	ldmia.w	sp!, {r3, r4, r5, r6, r7, lr}
2000ef9c:	3104      	adds	r1, #4
2000ef9e:	f7ff bb83 	b.w	2000e6a8 <vListInsert>
2000efa2:	4a0a      	ldr	r2, [pc, #40]	; (2000efcc <prvAddCurrentTaskToDelayedList+0x6c>)
2000efa4:	6810      	ldr	r0, [r2, #0]
2000efa6:	6819      	ldr	r1, [r3, #0]
2000efa8:	3104      	adds	r1, #4
2000efaa:	f7ff fb7d 	bl	2000e6a8 <vListInsert>
2000efae:	4b08      	ldr	r3, [pc, #32]	; (2000efd0 <prvAddCurrentTaskToDelayedList+0x70>)
2000efb0:	681a      	ldr	r2, [r3, #0]
2000efb2:	42a2      	cmp	r2, r4
2000efb4:	bf88      	it	hi
2000efb6:	601c      	strhi	r4, [r3, #0]
2000efb8:	bdf8      	pop	{r3, r4, r5, r6, r7, pc}
2000efba:	bf00      	nop
2000efbc:	200110ec 	.word	0x200110ec
2000efc0:	20010bf8 	.word	0x20010bf8
2000efc4:	200110c4 	.word	0x200110c4
2000efc8:	20010c00 	.word	0x20010c00
2000efcc:	20010bfc 	.word	0x20010bfc
2000efd0:	200110a4 	.word	0x200110a4

2000efd4 <xTaskCreateStatic>:
2000efd4:	b570      	push	{r4, r5, r6, lr}
2000efd6:	b086      	sub	sp, #24
2000efd8:	e9dd 540b 	ldrd	r5, r4, [sp, #44]	; 0x2c
2000efdc:	b945      	cbnz	r5, 2000eff0 <xTaskCreateStatic+0x1c>
2000efde:	f04f 0350 	mov.w	r3, #80	; 0x50
2000efe2:	f383 8811 	msr	BASEPRI, r3
2000efe6:	f3bf 8f6f 	isb	sy
2000efea:	f3bf 8f4f 	dsb	sy
2000efee:	e7fe      	b.n	2000efee <xTaskCreateStatic+0x1a>
2000eff0:	b944      	cbnz	r4, 2000f004 <xTaskCreateStatic+0x30>
2000eff2:	f04f 0350 	mov.w	r3, #80	; 0x50
2000eff6:	f383 8811 	msr	BASEPRI, r3
2000effa:	f3bf 8f6f 	isb	sy
2000effe:	f3bf 8f4f 	dsb	sy
2000f002:	e7fe      	b.n	2000f002 <xTaskCreateStatic+0x2e>
2000f004:	265c      	movs	r6, #92	; 0x5c
2000f006:	9605      	str	r6, [sp, #20]
2000f008:	9e05      	ldr	r6, [sp, #20]
2000f00a:	2e5c      	cmp	r6, #92	; 0x5c
2000f00c:	d008      	beq.n	2000f020 <xTaskCreateStatic+0x4c>
2000f00e:	f04f 0350 	mov.w	r3, #80	; 0x50
2000f012:	f383 8811 	msr	BASEPRI, r3
2000f016:	f3bf 8f6f 	isb	sy
2000f01a:	f3bf 8f4f 	dsb	sy
2000f01e:	e7fe      	b.n	2000f01e <xTaskCreateStatic+0x4a>
2000f020:	6325      	str	r5, [r4, #48]	; 0x30
2000f022:	2502      	movs	r5, #2
2000f024:	f884 5059 	strb.w	r5, [r4, #89]	; 0x59
2000f028:	ad04      	add	r5, sp, #16
2000f02a:	9501      	str	r5, [sp, #4]
2000f02c:	9d0a      	ldr	r5, [sp, #40]	; 0x28
2000f02e:	9402      	str	r4, [sp, #8]
2000f030:	9500      	str	r5, [sp, #0]
2000f032:	9e05      	ldr	r6, [sp, #20]
2000f034:	f7ff fef8 	bl	2000ee28 <prvInitialiseNewTask.isra.0>
2000f038:	4620      	mov	r0, r4
2000f03a:	f7ff fe63 	bl	2000ed04 <prvAddNewTaskToReadyList>
2000f03e:	9804      	ldr	r0, [sp, #16]
2000f040:	b006      	add	sp, #24
2000f042:	bd70      	pop	{r4, r5, r6, pc}

2000f044 <xTaskCreate>:
2000f044:	e92d 43f0 	stmdb	sp!, {r4, r5, r6, r7, r8, r9, lr}
2000f048:	4607      	mov	r7, r0
2000f04a:	b085      	sub	sp, #20
2000f04c:	0090      	lsls	r0, r2, #2
2000f04e:	4688      	mov	r8, r1
2000f050:	4616      	mov	r6, r2
2000f052:	4699      	mov	r9, r3
2000f054:	f000 febc 	bl	2000fdd0 <pvPortMalloc>
2000f058:	4605      	mov	r5, r0
2000f05a:	b1e8      	cbz	r0, 2000f098 <xTaskCreate+0x54>
2000f05c:	205c      	movs	r0, #92	; 0x5c
2000f05e:	f000 feb7 	bl	2000fdd0 <pvPortMalloc>
2000f062:	4604      	mov	r4, r0
2000f064:	b1a8      	cbz	r0, 2000f092 <xTaskCreate+0x4e>
2000f066:	2300      	movs	r3, #0
2000f068:	f880 3059 	strb.w	r3, [r0, #89]	; 0x59
2000f06c:	9b0d      	ldr	r3, [sp, #52]	; 0x34
2000f06e:	6305      	str	r5, [r0, #48]	; 0x30
2000f070:	9301      	str	r3, [sp, #4]
2000f072:	9b0c      	ldr	r3, [sp, #48]	; 0x30
2000f074:	9002      	str	r0, [sp, #8]
2000f076:	9300      	str	r3, [sp, #0]
2000f078:	4632      	mov	r2, r6
2000f07a:	464b      	mov	r3, r9
2000f07c:	4641      	mov	r1, r8
2000f07e:	4638      	mov	r0, r7
2000f080:	f7ff fed2 	bl	2000ee28 <prvInitialiseNewTask.isra.0>
2000f084:	4620      	mov	r0, r4
2000f086:	f7ff fe3d 	bl	2000ed04 <prvAddNewTaskToReadyList>
2000f08a:	2001      	movs	r0, #1
2000f08c:	b005      	add	sp, #20
2000f08e:	e8bd 83f0 	ldmia.w	sp!, {r4, r5, r6, r7, r8, r9, pc}
2000f092:	4628      	mov	r0, r5
2000f094:	f000 ff28 	bl	2000fee8 <vPortFree>
2000f098:	f04f 30ff 	mov.w	r0, #4294967295
2000f09c:	e7f6      	b.n	2000f08c <xTaskCreate+0x48>
	...

2000f0a0 <vTaskStartScheduler>:
2000f0a0:	b510      	push	{r4, lr}
2000f0a2:	b088      	sub	sp, #32
2000f0a4:	2400      	movs	r4, #0
2000f0a6:	aa07      	add	r2, sp, #28
2000f0a8:	a906      	add	r1, sp, #24
2000f0aa:	a805      	add	r0, sp, #20
2000f0ac:	e9cd 4405 	strd	r4, r4, [sp, #20]
2000f0b0:	f7ff fac8 	bl	2000e644 <vApplicationGetIdleTaskMemory>
2000f0b4:	9b05      	ldr	r3, [sp, #20]
2000f0b6:	9302      	str	r3, [sp, #8]
2000f0b8:	9b06      	ldr	r3, [sp, #24]
2000f0ba:	9a07      	ldr	r2, [sp, #28]
2000f0bc:	4915      	ldr	r1, [pc, #84]	; (2000f114 <vTaskStartScheduler+0x74>)
2000f0be:	4816      	ldr	r0, [pc, #88]	; (2000f118 <vTaskStartScheduler+0x78>)
2000f0c0:	e9cd 4300 	strd	r4, r3, [sp]
2000f0c4:	4623      	mov	r3, r4
2000f0c6:	f7ff ff85 	bl	2000efd4 <xTaskCreateStatic>
2000f0ca:	b1a8      	cbz	r0, 2000f0f8 <vTaskStartScheduler+0x58>
2000f0cc:	f000 fb14 	bl	2000f6f8 <xTimerCreateTimerTask>
2000f0d0:	2801      	cmp	r0, #1
2000f0d2:	d113      	bne.n	2000f0fc <vTaskStartScheduler+0x5c>
2000f0d4:	f04f 0350 	mov.w	r3, #80	; 0x50
2000f0d8:	f383 8811 	msr	BASEPRI, r3
2000f0dc:	f3bf 8f6f 	isb	sy
2000f0e0:	f3bf 8f4f 	dsb	sy
2000f0e4:	4b0d      	ldr	r3, [pc, #52]	; (2000f11c <vTaskStartScheduler+0x7c>)
2000f0e6:	f04f 32ff 	mov.w	r2, #4294967295
2000f0ea:	601a      	str	r2, [r3, #0]
2000f0ec:	4b0c      	ldr	r3, [pc, #48]	; (2000f120 <vTaskStartScheduler+0x80>)
2000f0ee:	6018      	str	r0, [r3, #0]
2000f0f0:	4b0c      	ldr	r3, [pc, #48]	; (2000f124 <vTaskStartScheduler+0x84>)
2000f0f2:	601c      	str	r4, [r3, #0]
2000f0f4:	f000 fd96 	bl	2000fc24 <xPortStartScheduler>
2000f0f8:	b008      	add	sp, #32
2000f0fa:	bd10      	pop	{r4, pc}
2000f0fc:	3001      	adds	r0, #1
2000f0fe:	d1fb      	bne.n	2000f0f8 <vTaskStartScheduler+0x58>
2000f100:	f04f 0350 	mov.w	r3, #80	; 0x50
2000f104:	f383 8811 	msr	BASEPRI, r3
2000f108:	f3bf 8f6f 	isb	sy
2000f10c:	f3bf 8f4f 	dsb	sy
2000f110:	e7fe      	b.n	2000f110 <vTaskStartScheduler+0x70>
2000f112:	bf00      	nop
2000f114:	20010488 	.word	0x20010488
2000f118:	2000eefd 	.word	0x2000eefd
2000f11c:	200110a4 	.word	0x200110a4
2000f120:	200110c0 	.word	0x200110c0
2000f124:	200110ec 	.word	0x200110ec

2000f128 <vTaskSuspendAll>:
2000f128:	4a02      	ldr	r2, [pc, #8]	; (2000f134 <vTaskSuspendAll+0xc>)
2000f12a:	6813      	ldr	r3, [r2, #0]
2000f12c:	3301      	adds	r3, #1
2000f12e:	6013      	str	r3, [r2, #0]
2000f130:	4770      	bx	lr
2000f132:	bf00      	nop
2000f134:	20011070 	.word	0x20011070

2000f138 <xTaskGetTickCount>:
2000f138:	4b01      	ldr	r3, [pc, #4]	; (2000f140 <xTaskGetTickCount+0x8>)
2000f13a:	6818      	ldr	r0, [r3, #0]
2000f13c:	4770      	bx	lr
2000f13e:	bf00      	nop
2000f140:	200110ec 	.word	0x200110ec

2000f144 <xTaskIncrementTick>:
2000f144:	4b3f      	ldr	r3, [pc, #252]	; (2000f244 <xTaskIncrementTick+0x100>)
2000f146:	681b      	ldr	r3, [r3, #0]
2000f148:	e92d 4ff7 	stmdb	sp!, {r0, r1, r2, r4, r5, r6, r7, r8, r9, sl, fp, lr}
2000f14c:	2b00      	cmp	r3, #0
2000f14e:	d173      	bne.n	2000f238 <xTaskIncrementTick+0xf4>
2000f150:	4b3d      	ldr	r3, [pc, #244]	; (2000f248 <xTaskIncrementTick+0x104>)
2000f152:	681d      	ldr	r5, [r3, #0]
2000f154:	3501      	adds	r5, #1
2000f156:	601d      	str	r5, [r3, #0]
2000f158:	b9bd      	cbnz	r5, 2000f18a <xTaskIncrementTick+0x46>
2000f15a:	4b3c      	ldr	r3, [pc, #240]	; (2000f24c <xTaskIncrementTick+0x108>)
2000f15c:	681a      	ldr	r2, [r3, #0]
2000f15e:	6812      	ldr	r2, [r2, #0]
2000f160:	b142      	cbz	r2, 2000f174 <xTaskIncrementTick+0x30>
2000f162:	f04f 0350 	mov.w	r3, #80	; 0x50
2000f166:	f383 8811 	msr	BASEPRI, r3
2000f16a:	f3bf 8f6f 	isb	sy
2000f16e:	f3bf 8f4f 	dsb	sy
2000f172:	e7fe      	b.n	2000f172 <xTaskIncrementTick+0x2e>
2000f174:	4a36      	ldr	r2, [pc, #216]	; (2000f250 <xTaskIncrementTick+0x10c>)
2000f176:	6819      	ldr	r1, [r3, #0]
2000f178:	6810      	ldr	r0, [r2, #0]
2000f17a:	6018      	str	r0, [r3, #0]
2000f17c:	6011      	str	r1, [r2, #0]
2000f17e:	4a35      	ldr	r2, [pc, #212]	; (2000f254 <xTaskIncrementTick+0x110>)
2000f180:	6813      	ldr	r3, [r2, #0]
2000f182:	3301      	adds	r3, #1
2000f184:	6013      	str	r3, [r2, #0]
2000f186:	f7ff fe3d 	bl	2000ee04 <prvResetNextTaskUnblockTime>
2000f18a:	4e33      	ldr	r6, [pc, #204]	; (2000f258 <xTaskIncrementTick+0x114>)
2000f18c:	4f33      	ldr	r7, [pc, #204]	; (2000f25c <xTaskIncrementTick+0x118>)
2000f18e:	6833      	ldr	r3, [r6, #0]
2000f190:	f8df 80d4 	ldr.w	r8, [pc, #212]	; 2000f268 <xTaskIncrementTick+0x124>
2000f194:	42ab      	cmp	r3, r5
2000f196:	f04f 0400 	mov.w	r4, #0
2000f19a:	d911      	bls.n	2000f1c0 <xTaskIncrementTick+0x7c>
2000f19c:	f8d8 3000 	ldr.w	r3, [r8]
2000f1a0:	6ada      	ldr	r2, [r3, #44]	; 0x2c
2000f1a2:	2314      	movs	r3, #20
2000f1a4:	4353      	muls	r3, r2
2000f1a6:	58fb      	ldr	r3, [r7, r3]
2000f1a8:	2b02      	cmp	r3, #2
2000f1aa:	bf28      	it	cs
2000f1ac:	2401      	movcs	r4, #1
2000f1ae:	4b2c      	ldr	r3, [pc, #176]	; (2000f260 <xTaskIncrementTick+0x11c>)
2000f1b0:	681b      	ldr	r3, [r3, #0]
2000f1b2:	2b00      	cmp	r3, #0
2000f1b4:	bf0c      	ite	eq
2000f1b6:	4620      	moveq	r0, r4
2000f1b8:	2001      	movne	r0, #1
2000f1ba:	b003      	add	sp, #12
2000f1bc:	e8bd 8ff0 	ldmia.w	sp!, {r4, r5, r6, r7, r8, r9, sl, fp, pc}
2000f1c0:	f8df 9088 	ldr.w	r9, [pc, #136]	; 2000f24c <xTaskIncrementTick+0x108>
2000f1c4:	f8df a0a4 	ldr.w	sl, [pc, #164]	; 2000f26c <xTaskIncrementTick+0x128>
2000f1c8:	f8d9 3000 	ldr.w	r3, [r9]
2000f1cc:	681b      	ldr	r3, [r3, #0]
2000f1ce:	b91b      	cbnz	r3, 2000f1d8 <xTaskIncrementTick+0x94>
2000f1d0:	f04f 33ff 	mov.w	r3, #4294967295
2000f1d4:	6033      	str	r3, [r6, #0]
2000f1d6:	e7e1      	b.n	2000f19c <xTaskIncrementTick+0x58>
2000f1d8:	f8d9 3000 	ldr.w	r3, [r9]
2000f1dc:	68db      	ldr	r3, [r3, #12]
2000f1de:	f8d3 b00c 	ldr.w	fp, [r3, #12]
2000f1e2:	f8db 2004 	ldr.w	r2, [fp, #4]
2000f1e6:	4295      	cmp	r5, r2
2000f1e8:	d201      	bcs.n	2000f1ee <xTaskIncrementTick+0xaa>
2000f1ea:	6032      	str	r2, [r6, #0]
2000f1ec:	e7d6      	b.n	2000f19c <xTaskIncrementTick+0x58>
2000f1ee:	f10b 0104 	add.w	r1, fp, #4
2000f1f2:	4608      	mov	r0, r1
2000f1f4:	9101      	str	r1, [sp, #4]
2000f1f6:	f7ff fa6e 	bl	2000e6d6 <uxListRemove>
2000f1fa:	f8db 2028 	ldr.w	r2, [fp, #40]	; 0x28
2000f1fe:	9901      	ldr	r1, [sp, #4]
2000f200:	b122      	cbz	r2, 2000f20c <xTaskIncrementTick+0xc8>
2000f202:	f10b 0018 	add.w	r0, fp, #24
2000f206:	f7ff fa66 	bl	2000e6d6 <uxListRemove>
2000f20a:	9901      	ldr	r1, [sp, #4]
2000f20c:	f8db 002c 	ldr.w	r0, [fp, #44]	; 0x2c
2000f210:	f8da 2000 	ldr.w	r2, [sl]
2000f214:	2314      	movs	r3, #20
2000f216:	4290      	cmp	r0, r2
2000f218:	bf88      	it	hi
2000f21a:	f8ca 0000 	strhi.w	r0, [sl]
2000f21e:	fb03 7000 	mla	r0, r3, r0, r7
2000f222:	f7ff fa35 	bl	2000e690 <vListInsertEnd>
2000f226:	f8d8 1000 	ldr.w	r1, [r8]
2000f22a:	f8db 202c 	ldr.w	r2, [fp, #44]	; 0x2c
2000f22e:	6acb      	ldr	r3, [r1, #44]	; 0x2c
2000f230:	429a      	cmp	r2, r3
2000f232:	bf28      	it	cs
2000f234:	2401      	movcs	r4, #1
2000f236:	e7c7      	b.n	2000f1c8 <xTaskIncrementTick+0x84>
2000f238:	4a0a      	ldr	r2, [pc, #40]	; (2000f264 <xTaskIncrementTick+0x120>)
2000f23a:	6813      	ldr	r3, [r2, #0]
2000f23c:	3301      	adds	r3, #1
2000f23e:	6013      	str	r3, [r2, #0]
2000f240:	2400      	movs	r4, #0
2000f242:	e7b4      	b.n	2000f1ae <xTaskIncrementTick+0x6a>
2000f244:	20011070 	.word	0x20011070
2000f248:	200110ec 	.word	0x200110ec
2000f24c:	20010bfc 	.word	0x20010bfc
2000f250:	20010c00 	.word	0x20010c00
2000f254:	200110a8 	.word	0x200110a8
2000f258:	200110a4 	.word	0x200110a4
2000f25c:	20010c04 	.word	0x20010c04
2000f260:	200110f0 	.word	0x200110f0
2000f264:	2001106c 	.word	0x2001106c
2000f268:	20010bf8 	.word	0x20010bf8
2000f26c:	20011078 	.word	0x20011078

2000f270 <xTaskResumeAll>:
2000f270:	b5f7      	push	{r0, r1, r2, r4, r5, r6, r7, lr}
2000f272:	4c30      	ldr	r4, [pc, #192]	; (2000f334 <xTaskResumeAll+0xc4>)
2000f274:	6823      	ldr	r3, [r4, #0]
2000f276:	b943      	cbnz	r3, 2000f28a <xTaskResumeAll+0x1a>
2000f278:	f04f 0350 	mov.w	r3, #80	; 0x50
2000f27c:	f383 8811 	msr	BASEPRI, r3
2000f280:	f3bf 8f6f 	isb	sy
2000f284:	f3bf 8f4f 	dsb	sy
2000f288:	e7fe      	b.n	2000f288 <xTaskResumeAll+0x18>
2000f28a:	f000 fc33 	bl	2000faf4 <vPortEnterCritical>
2000f28e:	6823      	ldr	r3, [r4, #0]
2000f290:	3b01      	subs	r3, #1
2000f292:	6023      	str	r3, [r4, #0]
2000f294:	6824      	ldr	r4, [r4, #0]
2000f296:	b12c      	cbz	r4, 2000f2a4 <xTaskResumeAll+0x34>
2000f298:	2400      	movs	r4, #0
2000f29a:	f000 fc4d 	bl	2000fb38 <vPortExitCritical>
2000f29e:	4620      	mov	r0, r4
2000f2a0:	b003      	add	sp, #12
2000f2a2:	bdf0      	pop	{r4, r5, r6, r7, pc}
2000f2a4:	4b24      	ldr	r3, [pc, #144]	; (2000f338 <xTaskResumeAll+0xc8>)
2000f2a6:	681b      	ldr	r3, [r3, #0]
2000f2a8:	2b00      	cmp	r3, #0
2000f2aa:	d0f5      	beq.n	2000f298 <xTaskResumeAll+0x28>
2000f2ac:	4d23      	ldr	r5, [pc, #140]	; (2000f33c <xTaskResumeAll+0xcc>)
2000f2ae:	4e24      	ldr	r6, [pc, #144]	; (2000f340 <xTaskResumeAll+0xd0>)
2000f2b0:	4f24      	ldr	r7, [pc, #144]	; (2000f344 <xTaskResumeAll+0xd4>)
2000f2b2:	e01e      	b.n	2000f2f2 <xTaskResumeAll+0x82>
2000f2b4:	68eb      	ldr	r3, [r5, #12]
2000f2b6:	68dc      	ldr	r4, [r3, #12]
2000f2b8:	f104 0018 	add.w	r0, r4, #24
2000f2bc:	f7ff fa0b 	bl	2000e6d6 <uxListRemove>
2000f2c0:	1d21      	adds	r1, r4, #4
2000f2c2:	4608      	mov	r0, r1
2000f2c4:	9101      	str	r1, [sp, #4]
2000f2c6:	f7ff fa06 	bl	2000e6d6 <uxListRemove>
2000f2ca:	6ae3      	ldr	r3, [r4, #44]	; 0x2c
2000f2cc:	6832      	ldr	r2, [r6, #0]
2000f2ce:	9901      	ldr	r1, [sp, #4]
2000f2d0:	2014      	movs	r0, #20
2000f2d2:	4293      	cmp	r3, r2
2000f2d4:	fb00 7003 	mla	r0, r0, r3, r7
2000f2d8:	bf88      	it	hi
2000f2da:	6033      	strhi	r3, [r6, #0]
2000f2dc:	f7ff f9d8 	bl	2000e690 <vListInsertEnd>
2000f2e0:	4b19      	ldr	r3, [pc, #100]	; (2000f348 <xTaskResumeAll+0xd8>)
2000f2e2:	6ae2      	ldr	r2, [r4, #44]	; 0x2c
2000f2e4:	681b      	ldr	r3, [r3, #0]
2000f2e6:	6adb      	ldr	r3, [r3, #44]	; 0x2c
2000f2e8:	429a      	cmp	r2, r3
2000f2ea:	d302      	bcc.n	2000f2f2 <xTaskResumeAll+0x82>
2000f2ec:	4b17      	ldr	r3, [pc, #92]	; (2000f34c <xTaskResumeAll+0xdc>)
2000f2ee:	2201      	movs	r2, #1
2000f2f0:	601a      	str	r2, [r3, #0]
2000f2f2:	682b      	ldr	r3, [r5, #0]
2000f2f4:	2b00      	cmp	r3, #0
2000f2f6:	d1dd      	bne.n	2000f2b4 <xTaskResumeAll+0x44>
2000f2f8:	b10c      	cbz	r4, 2000f2fe <xTaskResumeAll+0x8e>
2000f2fa:	f7ff fd83 	bl	2000ee04 <prvResetNextTaskUnblockTime>
2000f2fe:	4d14      	ldr	r5, [pc, #80]	; (2000f350 <xTaskResumeAll+0xe0>)
2000f300:	682c      	ldr	r4, [r5, #0]
2000f302:	b144      	cbz	r4, 2000f316 <xTaskResumeAll+0xa6>
2000f304:	4e11      	ldr	r6, [pc, #68]	; (2000f34c <xTaskResumeAll+0xdc>)
2000f306:	2701      	movs	r7, #1
2000f308:	f7ff ff1c 	bl	2000f144 <xTaskIncrementTick>
2000f30c:	b100      	cbz	r0, 2000f310 <xTaskResumeAll+0xa0>
2000f30e:	6037      	str	r7, [r6, #0]
2000f310:	3c01      	subs	r4, #1
2000f312:	d1f9      	bne.n	2000f308 <xTaskResumeAll+0x98>
2000f314:	602c      	str	r4, [r5, #0]
2000f316:	4b0d      	ldr	r3, [pc, #52]	; (2000f34c <xTaskResumeAll+0xdc>)
2000f318:	681b      	ldr	r3, [r3, #0]
2000f31a:	2b00      	cmp	r3, #0
2000f31c:	d0bc      	beq.n	2000f298 <xTaskResumeAll+0x28>
2000f31e:	4b0d      	ldr	r3, [pc, #52]	; (2000f354 <xTaskResumeAll+0xe4>)
2000f320:	f04f 5280 	mov.w	r2, #268435456	; 0x10000000
2000f324:	601a      	str	r2, [r3, #0]
2000f326:	f3bf 8f4f 	dsb	sy
2000f32a:	f3bf 8f6f 	isb	sy
2000f32e:	2401      	movs	r4, #1
2000f330:	e7b3      	b.n	2000f29a <xTaskResumeAll+0x2a>
2000f332:	bf00      	nop
2000f334:	20011070 	.word	0x20011070
2000f338:	20011064 	.word	0x20011064
2000f33c:	200110ac 	.word	0x200110ac
2000f340:	20011078 	.word	0x20011078
2000f344:	20010c04 	.word	0x20010c04
2000f348:	20010bf8 	.word	0x20010bf8
2000f34c:	200110f0 	.word	0x200110f0
2000f350:	2001106c 	.word	0x2001106c
2000f354:	e000ed04 	.word	0xe000ed04

2000f358 <vTaskDelay>:
2000f358:	b508      	push	{r3, lr}
2000f35a:	b940      	cbnz	r0, 2000f36e <vTaskDelay+0x16>
2000f35c:	4b0e      	ldr	r3, [pc, #56]	; (2000f398 <vTaskDelay+0x40>)
2000f35e:	f04f 5280 	mov.w	r2, #268435456	; 0x10000000
2000f362:	601a      	str	r2, [r3, #0]
2000f364:	f3bf 8f4f 	dsb	sy
2000f368:	f3bf 8f6f 	isb	sy
2000f36c:	bd08      	pop	{r3, pc}
2000f36e:	4b0b      	ldr	r3, [pc, #44]	; (2000f39c <vTaskDelay+0x44>)
2000f370:	6819      	ldr	r1, [r3, #0]
2000f372:	b141      	cbz	r1, 2000f386 <vTaskDelay+0x2e>
2000f374:	f04f 0350 	mov.w	r3, #80	; 0x50
2000f378:	f383 8811 	msr	BASEPRI, r3
2000f37c:	f3bf 8f6f 	isb	sy
2000f380:	f3bf 8f4f 	dsb	sy
2000f384:	e7fe      	b.n	2000f384 <vTaskDelay+0x2c>
2000f386:	f7ff fecf 	bl	2000f128 <vTaskSuspendAll>
2000f38a:	f7ff fde9 	bl	2000ef60 <prvAddCurrentTaskToDelayedList>
2000f38e:	f7ff ff6f 	bl	2000f270 <xTaskResumeAll>
2000f392:	2800      	cmp	r0, #0
2000f394:	d0e2      	beq.n	2000f35c <vTaskDelay+0x4>
2000f396:	e7e9      	b.n	2000f36c <vTaskDelay+0x14>
2000f398:	e000ed04 	.word	0xe000ed04
2000f39c:	20011070 	.word	0x20011070

2000f3a0 <vTaskSwitchContext>:
2000f3a0:	4b18      	ldr	r3, [pc, #96]	; (2000f404 <vTaskSwitchContext+0x64>)
2000f3a2:	681a      	ldr	r2, [r3, #0]
2000f3a4:	4b18      	ldr	r3, [pc, #96]	; (2000f408 <vTaskSwitchContext+0x68>)
2000f3a6:	b5f0      	push	{r4, r5, r6, r7, lr}
2000f3a8:	b112      	cbz	r2, 2000f3b0 <vTaskSwitchContext+0x10>
2000f3aa:	2201      	movs	r2, #1
2000f3ac:	601a      	str	r2, [r3, #0]
2000f3ae:	bdf0      	pop	{r4, r5, r6, r7, pc}
2000f3b0:	4d16      	ldr	r5, [pc, #88]	; (2000f40c <vTaskSwitchContext+0x6c>)
2000f3b2:	601a      	str	r2, [r3, #0]
2000f3b4:	4a16      	ldr	r2, [pc, #88]	; (2000f410 <vTaskSwitchContext+0x70>)
2000f3b6:	682b      	ldr	r3, [r5, #0]
2000f3b8:	2714      	movs	r7, #20
2000f3ba:	4616      	mov	r6, r2
2000f3bc:	fb07 f103 	mul.w	r1, r7, r3
2000f3c0:	1850      	adds	r0, r2, r1
2000f3c2:	5854      	ldr	r4, [r2, r1]
2000f3c4:	b18c      	cbz	r4, 2000f3ea <vTaskSwitchContext+0x4a>
2000f3c6:	6844      	ldr	r4, [r0, #4]
2000f3c8:	3108      	adds	r1, #8
2000f3ca:	6864      	ldr	r4, [r4, #4]
2000f3cc:	6044      	str	r4, [r0, #4]
2000f3ce:	440a      	add	r2, r1
2000f3d0:	4294      	cmp	r4, r2
2000f3d2:	bf04      	itt	eq
2000f3d4:	6862      	ldreq	r2, [r4, #4]
2000f3d6:	6042      	streq	r2, [r0, #4]
2000f3d8:	2214      	movs	r2, #20
2000f3da:	fb02 6203 	mla	r2, r2, r3, r6
2000f3de:	6852      	ldr	r2, [r2, #4]
2000f3e0:	68d1      	ldr	r1, [r2, #12]
2000f3e2:	4a0c      	ldr	r2, [pc, #48]	; (2000f414 <vTaskSwitchContext+0x74>)
2000f3e4:	6011      	str	r1, [r2, #0]
2000f3e6:	602b      	str	r3, [r5, #0]
2000f3e8:	e7e1      	b.n	2000f3ae <vTaskSwitchContext+0xe>
2000f3ea:	b943      	cbnz	r3, 2000f3fe <vTaskSwitchContext+0x5e>
2000f3ec:	f04f 0350 	mov.w	r3, #80	; 0x50
2000f3f0:	f383 8811 	msr	BASEPRI, r3
2000f3f4:	f3bf 8f6f 	isb	sy
2000f3f8:	f3bf 8f4f 	dsb	sy
2000f3fc:	e7fe      	b.n	2000f3fc <vTaskSwitchContext+0x5c>
2000f3fe:	3b01      	subs	r3, #1
2000f400:	e7dc      	b.n	2000f3bc <vTaskSwitchContext+0x1c>
2000f402:	bf00      	nop
2000f404:	20011070 	.word	0x20011070
2000f408:	200110f0 	.word	0x200110f0
2000f40c:	20011078 	.word	0x20011078
2000f410:	20010c04 	.word	0x20010c04
2000f414:	20010bf8 	.word	0x20010bf8

2000f418 <vTaskPlaceOnEventList>:
2000f418:	b510      	push	{r4, lr}
2000f41a:	460c      	mov	r4, r1
2000f41c:	b940      	cbnz	r0, 2000f430 <vTaskPlaceOnEventList+0x18>
2000f41e:	f04f 0350 	mov.w	r3, #80	; 0x50
2000f422:	f383 8811 	msr	BASEPRI, r3
2000f426:	f3bf 8f6f 	isb	sy
2000f42a:	f3bf 8f4f 	dsb	sy
2000f42e:	e7fe      	b.n	2000f42e <vTaskPlaceOnEventList+0x16>
2000f430:	4b05      	ldr	r3, [pc, #20]	; (2000f448 <vTaskPlaceOnEventList+0x30>)
2000f432:	6819      	ldr	r1, [r3, #0]
2000f434:	3118      	adds	r1, #24
2000f436:	f7ff f937 	bl	2000e6a8 <vListInsert>
2000f43a:	4620      	mov	r0, r4
2000f43c:	2101      	movs	r1, #1
2000f43e:	e8bd 4010 	ldmia.w	sp!, {r4, lr}
2000f442:	f7ff bd8d 	b.w	2000ef60 <prvAddCurrentTaskToDelayedList>
2000f446:	bf00      	nop
2000f448:	20010bf8 	.word	0x20010bf8

2000f44c <vTaskPlaceOnEventListRestricted>:
2000f44c:	b538      	push	{r3, r4, r5, lr}
2000f44e:	460d      	mov	r5, r1
2000f450:	4614      	mov	r4, r2
2000f452:	b940      	cbnz	r0, 2000f466 <vTaskPlaceOnEventListRestricted+0x1a>
2000f454:	f04f 0350 	mov.w	r3, #80	; 0x50
2000f458:	f383 8811 	msr	BASEPRI, r3
2000f45c:	f3bf 8f6f 	isb	sy
2000f460:	f3bf 8f4f 	dsb	sy
2000f464:	e7fe      	b.n	2000f464 <vTaskPlaceOnEventListRestricted+0x18>
2000f466:	4b07      	ldr	r3, [pc, #28]	; (2000f484 <vTaskPlaceOnEventListRestricted+0x38>)
2000f468:	6819      	ldr	r1, [r3, #0]
2000f46a:	3118      	adds	r1, #24
2000f46c:	f7ff f910 	bl	2000e690 <vListInsertEnd>
2000f470:	2c00      	cmp	r4, #0
2000f472:	4621      	mov	r1, r4
2000f474:	bf0c      	ite	eq
2000f476:	4628      	moveq	r0, r5
2000f478:	f04f 30ff 	movne.w	r0, #4294967295
2000f47c:	e8bd 4038 	ldmia.w	sp!, {r3, r4, r5, lr}
2000f480:	f7ff bd6e 	b.w	2000ef60 <prvAddCurrentTaskToDelayedList>
2000f484:	20010bf8 	.word	0x20010bf8

2000f488 <xTaskRemoveFromEventList>:
2000f488:	68c3      	ldr	r3, [r0, #12]
2000f48a:	b513      	push	{r0, r1, r4, lr}
2000f48c:	68dc      	ldr	r4, [r3, #12]
2000f48e:	b944      	cbnz	r4, 2000f4a2 <xTaskRemoveFromEventList+0x1a>
2000f490:	f04f 0350 	mov.w	r3, #80	; 0x50
2000f494:	f383 8811 	msr	BASEPRI, r3
2000f498:	f3bf 8f6f 	isb	sy
2000f49c:	f3bf 8f4f 	dsb	sy
2000f4a0:	e7fe      	b.n	2000f4a0 <xTaskRemoveFromEventList+0x18>
2000f4a2:	f104 0118 	add.w	r1, r4, #24
2000f4a6:	4608      	mov	r0, r1
2000f4a8:	9101      	str	r1, [sp, #4]
2000f4aa:	f7ff f914 	bl	2000e6d6 <uxListRemove>
2000f4ae:	4b12      	ldr	r3, [pc, #72]	; (2000f4f8 <xTaskRemoveFromEventList+0x70>)
2000f4b0:	9901      	ldr	r1, [sp, #4]
2000f4b2:	681b      	ldr	r3, [r3, #0]
2000f4b4:	b9eb      	cbnz	r3, 2000f4f2 <xTaskRemoveFromEventList+0x6a>
2000f4b6:	1d21      	adds	r1, r4, #4
2000f4b8:	4608      	mov	r0, r1
2000f4ba:	9101      	str	r1, [sp, #4]
2000f4bc:	f7ff f90b 	bl	2000e6d6 <uxListRemove>
2000f4c0:	4a0e      	ldr	r2, [pc, #56]	; (2000f4fc <xTaskRemoveFromEventList+0x74>)
2000f4c2:	6ae3      	ldr	r3, [r4, #44]	; 0x2c
2000f4c4:	6810      	ldr	r0, [r2, #0]
2000f4c6:	9901      	ldr	r1, [sp, #4]
2000f4c8:	4283      	cmp	r3, r0
2000f4ca:	bf88      	it	hi
2000f4cc:	6013      	strhi	r3, [r2, #0]
2000f4ce:	4a0c      	ldr	r2, [pc, #48]	; (2000f500 <xTaskRemoveFromEventList+0x78>)
2000f4d0:	2014      	movs	r0, #20
2000f4d2:	fb00 2003 	mla	r0, r0, r3, r2
2000f4d6:	f7ff f8db 	bl	2000e690 <vListInsertEnd>
2000f4da:	4b0a      	ldr	r3, [pc, #40]	; (2000f504 <xTaskRemoveFromEventList+0x7c>)
2000f4dc:	6ae2      	ldr	r2, [r4, #44]	; 0x2c
2000f4de:	681b      	ldr	r3, [r3, #0]
2000f4e0:	6adb      	ldr	r3, [r3, #44]	; 0x2c
2000f4e2:	429a      	cmp	r2, r3
2000f4e4:	bf85      	ittet	hi
2000f4e6:	4b08      	ldrhi	r3, [pc, #32]	; (2000f508 <xTaskRemoveFromEventList+0x80>)
2000f4e8:	2001      	movhi	r0, #1
2000f4ea:	2000      	movls	r0, #0
2000f4ec:	6018      	strhi	r0, [r3, #0]
2000f4ee:	b002      	add	sp, #8
2000f4f0:	bd10      	pop	{r4, pc}
2000f4f2:	4806      	ldr	r0, [pc, #24]	; (2000f50c <xTaskRemoveFromEventList+0x84>)
2000f4f4:	e7ef      	b.n	2000f4d6 <xTaskRemoveFromEventList+0x4e>
2000f4f6:	bf00      	nop
2000f4f8:	20011070 	.word	0x20011070
2000f4fc:	20011078 	.word	0x20011078
2000f500:	20010c04 	.word	0x20010c04
2000f504:	20010bf8 	.word	0x20010bf8
2000f508:	200110f0 	.word	0x200110f0
2000f50c:	200110ac 	.word	0x200110ac

2000f510 <vTaskInternalSetTimeOutState>:
2000f510:	4b03      	ldr	r3, [pc, #12]	; (2000f520 <vTaskInternalSetTimeOutState+0x10>)
2000f512:	681b      	ldr	r3, [r3, #0]
2000f514:	6003      	str	r3, [r0, #0]
2000f516:	4b03      	ldr	r3, [pc, #12]	; (2000f524 <vTaskInternalSetTimeOutState+0x14>)
2000f518:	681b      	ldr	r3, [r3, #0]
2000f51a:	6043      	str	r3, [r0, #4]
2000f51c:	4770      	bx	lr
2000f51e:	bf00      	nop
2000f520:	200110a8 	.word	0x200110a8
2000f524:	200110ec 	.word	0x200110ec

2000f528 <xTaskCheckForTimeOut>:
2000f528:	b570      	push	{r4, r5, r6, lr}
2000f52a:	460c      	mov	r4, r1
2000f52c:	4605      	mov	r5, r0
2000f52e:	b940      	cbnz	r0, 2000f542 <xTaskCheckForTimeOut+0x1a>
2000f530:	f04f 0350 	mov.w	r3, #80	; 0x50
2000f534:	f383 8811 	msr	BASEPRI, r3
2000f538:	f3bf 8f6f 	isb	sy
2000f53c:	f3bf 8f4f 	dsb	sy
2000f540:	e7fe      	b.n	2000f540 <xTaskCheckForTimeOut+0x18>
2000f542:	b941      	cbnz	r1, 2000f556 <xTaskCheckForTimeOut+0x2e>
2000f544:	f04f 0350 	mov.w	r3, #80	; 0x50
2000f548:	f383 8811 	msr	BASEPRI, r3
2000f54c:	f3bf 8f6f 	isb	sy
2000f550:	f3bf 8f4f 	dsb	sy
2000f554:	e7fe      	b.n	2000f554 <xTaskCheckForTimeOut+0x2c>
2000f556:	f000 facd 	bl	2000faf4 <vPortEnterCritical>
2000f55a:	4b0f      	ldr	r3, [pc, #60]	; (2000f598 <xTaskCheckForTimeOut+0x70>)
2000f55c:	6819      	ldr	r1, [r3, #0]
2000f55e:	6823      	ldr	r3, [r4, #0]
2000f560:	1c5a      	adds	r2, r3, #1
2000f562:	d010      	beq.n	2000f586 <xTaskCheckForTimeOut+0x5e>
2000f564:	480d      	ldr	r0, [pc, #52]	; (2000f59c <xTaskCheckForTimeOut+0x74>)
2000f566:	682e      	ldr	r6, [r5, #0]
2000f568:	6800      	ldr	r0, [r0, #0]
2000f56a:	686a      	ldr	r2, [r5, #4]
2000f56c:	4286      	cmp	r6, r0
2000f56e:	d001      	beq.n	2000f574 <xTaskCheckForTimeOut+0x4c>
2000f570:	428a      	cmp	r2, r1
2000f572:	d90f      	bls.n	2000f594 <xTaskCheckForTimeOut+0x6c>
2000f574:	1a88      	subs	r0, r1, r2
2000f576:	4283      	cmp	r3, r0
2000f578:	d90a      	bls.n	2000f590 <xTaskCheckForTimeOut+0x68>
2000f57a:	1a5b      	subs	r3, r3, r1
2000f57c:	4413      	add	r3, r2
2000f57e:	6023      	str	r3, [r4, #0]
2000f580:	4628      	mov	r0, r5
2000f582:	f7ff ffc5 	bl	2000f510 <vTaskInternalSetTimeOutState>
2000f586:	2400      	movs	r4, #0
2000f588:	f000 fad6 	bl	2000fb38 <vPortExitCritical>
2000f58c:	4620      	mov	r0, r4
2000f58e:	bd70      	pop	{r4, r5, r6, pc}
2000f590:	2300      	movs	r3, #0
2000f592:	6023      	str	r3, [r4, #0]
2000f594:	2401      	movs	r4, #1
2000f596:	e7f7      	b.n	2000f588 <xTaskCheckForTimeOut+0x60>
2000f598:	200110ec 	.word	0x200110ec
2000f59c:	200110a8 	.word	0x200110a8

2000f5a0 <vTaskMissedYield>:
2000f5a0:	4b01      	ldr	r3, [pc, #4]	; (2000f5a8 <vTaskMissedYield+0x8>)
2000f5a2:	2201      	movs	r2, #1
2000f5a4:	601a      	str	r2, [r3, #0]
2000f5a6:	4770      	bx	lr
2000f5a8:	200110f0 	.word	0x200110f0

2000f5ac <xTaskGetSchedulerState>:
2000f5ac:	4b05      	ldr	r3, [pc, #20]	; (2000f5c4 <xTaskGetSchedulerState+0x18>)
2000f5ae:	681b      	ldr	r3, [r3, #0]
2000f5b0:	b133      	cbz	r3, 2000f5c0 <xTaskGetSchedulerState+0x14>
2000f5b2:	4b05      	ldr	r3, [pc, #20]	; (2000f5c8 <xTaskGetSchedulerState+0x1c>)
2000f5b4:	681b      	ldr	r3, [r3, #0]
2000f5b6:	2b00      	cmp	r3, #0
2000f5b8:	bf0c      	ite	eq
2000f5ba:	2002      	moveq	r0, #2
2000f5bc:	2000      	movne	r0, #0
2000f5be:	4770      	bx	lr
2000f5c0:	2001      	movs	r0, #1
2000f5c2:	4770      	bx	lr
2000f5c4:	200110c0 	.word	0x200110c0
2000f5c8:	20011070 	.word	0x20011070

2000f5cc <xTaskPriorityDisinherit>:
2000f5cc:	b513      	push	{r0, r1, r4, lr}
2000f5ce:	b910      	cbnz	r0, 2000f5d6 <xTaskPriorityDisinherit+0xa>
2000f5d0:	2000      	movs	r0, #0
2000f5d2:	b002      	add	sp, #8
2000f5d4:	bd10      	pop	{r4, pc}
2000f5d6:	4b1c      	ldr	r3, [pc, #112]	; (2000f648 <xTaskPriorityDisinherit+0x7c>)
2000f5d8:	681c      	ldr	r4, [r3, #0]
2000f5da:	4284      	cmp	r4, r0
2000f5dc:	d008      	beq.n	2000f5f0 <xTaskPriorityDisinherit+0x24>
2000f5de:	f04f 0350 	mov.w	r3, #80	; 0x50
2000f5e2:	f383 8811 	msr	BASEPRI, r3
2000f5e6:	f3bf 8f6f 	isb	sy
2000f5ea:	f3bf 8f4f 	dsb	sy
2000f5ee:	e7fe      	b.n	2000f5ee <xTaskPriorityDisinherit+0x22>
2000f5f0:	6d23      	ldr	r3, [r4, #80]	; 0x50
2000f5f2:	b943      	cbnz	r3, 2000f606 <xTaskPriorityDisinherit+0x3a>
2000f5f4:	f04f 0350 	mov.w	r3, #80	; 0x50
2000f5f8:	f383 8811 	msr	BASEPRI, r3
2000f5fc:	f3bf 8f6f 	isb	sy
2000f600:	f3bf 8f4f 	dsb	sy
2000f604:	e7fe      	b.n	2000f604 <xTaskPriorityDisinherit+0x38>
2000f606:	6ae1      	ldr	r1, [r4, #44]	; 0x2c
2000f608:	6ce2      	ldr	r2, [r4, #76]	; 0x4c
2000f60a:	3b01      	subs	r3, #1
2000f60c:	4291      	cmp	r1, r2
2000f60e:	6523      	str	r3, [r4, #80]	; 0x50
2000f610:	d0de      	beq.n	2000f5d0 <xTaskPriorityDisinherit+0x4>
2000f612:	2b00      	cmp	r3, #0
2000f614:	d1dc      	bne.n	2000f5d0 <xTaskPriorityDisinherit+0x4>
2000f616:	1d21      	adds	r1, r4, #4
2000f618:	4608      	mov	r0, r1
2000f61a:	9101      	str	r1, [sp, #4]
2000f61c:	f7ff f85b 	bl	2000e6d6 <uxListRemove>
2000f620:	6ce3      	ldr	r3, [r4, #76]	; 0x4c
2000f622:	9901      	ldr	r1, [sp, #4]
2000f624:	62e3      	str	r3, [r4, #44]	; 0x2c
2000f626:	f1c3 0238 	rsb	r2, r3, #56	; 0x38
2000f62a:	61a2      	str	r2, [r4, #24]
2000f62c:	4a07      	ldr	r2, [pc, #28]	; (2000f64c <xTaskPriorityDisinherit+0x80>)
2000f62e:	6810      	ldr	r0, [r2, #0]
2000f630:	4283      	cmp	r3, r0
2000f632:	bf88      	it	hi
2000f634:	6013      	strhi	r3, [r2, #0]
2000f636:	4a06      	ldr	r2, [pc, #24]	; (2000f650 <xTaskPriorityDisinherit+0x84>)
2000f638:	2014      	movs	r0, #20
2000f63a:	fb00 2003 	mla	r0, r0, r3, r2
2000f63e:	f7ff f827 	bl	2000e690 <vListInsertEnd>
2000f642:	2001      	movs	r0, #1
2000f644:	e7c5      	b.n	2000f5d2 <xTaskPriorityDisinherit+0x6>
2000f646:	bf00      	nop
2000f648:	20010bf8 	.word	0x20010bf8
2000f64c:	20011078 	.word	0x20011078
2000f650:	20010c04 	.word	0x20010c04

2000f654 <prvCheckForValidListAndQueue>:
2000f654:	b5f7      	push	{r0, r1, r2, r4, r5, r6, r7, lr}
2000f656:	4c11      	ldr	r4, [pc, #68]	; (2000f69c <prvCheckForValidListAndQueue+0x48>)
2000f658:	f000 fa4c 	bl	2000faf4 <vPortEnterCritical>
2000f65c:	6825      	ldr	r5, [r4, #0]
2000f65e:	b9bd      	cbnz	r5, 2000f690 <prvCheckForValidListAndQueue+0x3c>
2000f660:	4f0f      	ldr	r7, [pc, #60]	; (2000f6a0 <prvCheckForValidListAndQueue+0x4c>)
2000f662:	4e10      	ldr	r6, [pc, #64]	; (2000f6a4 <prvCheckForValidListAndQueue+0x50>)
2000f664:	4638      	mov	r0, r7
2000f666:	f7ff f805 	bl	2000e674 <vListInitialise>
2000f66a:	4630      	mov	r0, r6
2000f66c:	f7ff f802 	bl	2000e674 <vListInitialise>
2000f670:	4b0d      	ldr	r3, [pc, #52]	; (2000f6a8 <prvCheckForValidListAndQueue+0x54>)
2000f672:	4a0e      	ldr	r2, [pc, #56]	; (2000f6ac <prvCheckForValidListAndQueue+0x58>)
2000f674:	601f      	str	r7, [r3, #0]
2000f676:	4b0e      	ldr	r3, [pc, #56]	; (2000f6b0 <prvCheckForValidListAndQueue+0x5c>)
2000f678:	2110      	movs	r1, #16
2000f67a:	601e      	str	r6, [r3, #0]
2000f67c:	200a      	movs	r0, #10
2000f67e:	4b0d      	ldr	r3, [pc, #52]	; (2000f6b4 <prvCheckForValidListAndQueue+0x60>)
2000f680:	9500      	str	r5, [sp, #0]
2000f682:	f7ff f907 	bl	2000e894 <xQueueGenericCreateStatic>
2000f686:	6020      	str	r0, [r4, #0]
2000f688:	b110      	cbz	r0, 2000f690 <prvCheckForValidListAndQueue+0x3c>
2000f68a:	490b      	ldr	r1, [pc, #44]	; (2000f6b8 <prvCheckForValidListAndQueue+0x64>)
2000f68c:	f7ff fb04 	bl	2000ec98 <vQueueAddToRegistry>
2000f690:	b003      	add	sp, #12
2000f692:	e8bd 40f0 	ldmia.w	sp!, {r4, r5, r6, r7, lr}
2000f696:	f000 ba4f 	b.w	2000fb38 <vPortExitCritical>
2000f69a:	bf00      	nop
2000f69c:	20011218 	.word	0x20011218
2000f6a0:	2001119c 	.word	0x2001119c
2000f6a4:	200111b0 	.word	0x200111b0
2000f6a8:	200110f4 	.word	0x200110f4
2000f6ac:	200110fc 	.word	0x200110fc
2000f6b0:	200110f8 	.word	0x200110f8
2000f6b4:	200111c8 	.word	0x200111c8
2000f6b8:	2001048d 	.word	0x2001048d

2000f6bc <prvInsertTimerInActiveList>:
2000f6bc:	4291      	cmp	r1, r2
2000f6be:	b508      	push	{r3, lr}
2000f6c0:	6041      	str	r1, [r0, #4]
2000f6c2:	6100      	str	r0, [r0, #16]
2000f6c4:	d80a      	bhi.n	2000f6dc <prvInsertTimerInActiveList+0x20>
2000f6c6:	1ad2      	subs	r2, r2, r3
2000f6c8:	6983      	ldr	r3, [r0, #24]
2000f6ca:	429a      	cmp	r2, r3
2000f6cc:	d20d      	bcs.n	2000f6ea <prvInsertTimerInActiveList+0x2e>
2000f6ce:	4b08      	ldr	r3, [pc, #32]	; (2000f6f0 <prvInsertTimerInActiveList+0x34>)
2000f6d0:	1d01      	adds	r1, r0, #4
2000f6d2:	6818      	ldr	r0, [r3, #0]
2000f6d4:	f7fe ffe8 	bl	2000e6a8 <vListInsert>
2000f6d8:	2000      	movs	r0, #0
2000f6da:	bd08      	pop	{r3, pc}
2000f6dc:	429a      	cmp	r2, r3
2000f6de:	d201      	bcs.n	2000f6e4 <prvInsertTimerInActiveList+0x28>
2000f6e0:	4299      	cmp	r1, r3
2000f6e2:	d202      	bcs.n	2000f6ea <prvInsertTimerInActiveList+0x2e>
2000f6e4:	4b03      	ldr	r3, [pc, #12]	; (2000f6f4 <prvInsertTimerInActiveList+0x38>)
2000f6e6:	1d01      	adds	r1, r0, #4
2000f6e8:	e7f3      	b.n	2000f6d2 <prvInsertTimerInActiveList+0x16>
2000f6ea:	2001      	movs	r0, #1
2000f6ec:	e7f5      	b.n	2000f6da <prvInsertTimerInActiveList+0x1e>
2000f6ee:	bf00      	nop
2000f6f0:	200110f8 	.word	0x200110f8
2000f6f4:	200110f4 	.word	0x200110f4

2000f6f8 <xTimerCreateTimerTask>:
2000f6f8:	b510      	push	{r4, lr}
2000f6fa:	b088      	sub	sp, #32
2000f6fc:	f7ff ffaa 	bl	2000f654 <prvCheckForValidListAndQueue>
2000f700:	4b12      	ldr	r3, [pc, #72]	; (2000f74c <xTimerCreateTimerTask+0x54>)
2000f702:	681b      	ldr	r3, [r3, #0]
2000f704:	b1b3      	cbz	r3, 2000f734 <xTimerCreateTimerTask+0x3c>
2000f706:	2400      	movs	r4, #0
2000f708:	aa07      	add	r2, sp, #28
2000f70a:	a906      	add	r1, sp, #24
2000f70c:	a805      	add	r0, sp, #20
2000f70e:	e9cd 4405 	strd	r4, r4, [sp, #20]
2000f712:	f7fe ffa3 	bl	2000e65c <vApplicationGetTimerTaskMemory>
2000f716:	9b05      	ldr	r3, [sp, #20]
2000f718:	9302      	str	r3, [sp, #8]
2000f71a:	9b06      	ldr	r3, [sp, #24]
2000f71c:	9301      	str	r3, [sp, #4]
2000f71e:	2302      	movs	r3, #2
2000f720:	9300      	str	r3, [sp, #0]
2000f722:	9a07      	ldr	r2, [sp, #28]
2000f724:	490a      	ldr	r1, [pc, #40]	; (2000f750 <xTimerCreateTimerTask+0x58>)
2000f726:	480b      	ldr	r0, [pc, #44]	; (2000f754 <xTimerCreateTimerTask+0x5c>)
2000f728:	4623      	mov	r3, r4
2000f72a:	f7ff fc53 	bl	2000efd4 <xTaskCreateStatic>
2000f72e:	4b0a      	ldr	r3, [pc, #40]	; (2000f758 <xTimerCreateTimerTask+0x60>)
2000f730:	6018      	str	r0, [r3, #0]
2000f732:	b940      	cbnz	r0, 2000f746 <xTimerCreateTimerTask+0x4e>
2000f734:	f04f 0350 	mov.w	r3, #80	; 0x50
2000f738:	f383 8811 	msr	BASEPRI, r3
2000f73c:	f3bf 8f6f 	isb	sy
2000f740:	f3bf 8f4f 	dsb	sy
2000f744:	e7fe      	b.n	2000f744 <xTimerCreateTimerTask+0x4c>
2000f746:	2001      	movs	r0, #1
2000f748:	b008      	add	sp, #32
2000f74a:	bd10      	pop	{r4, pc}
2000f74c:	20011218 	.word	0x20011218
2000f750:	20010492 	.word	0x20010492
2000f754:	2000f831 	.word	0x2000f831
2000f758:	2001121c 	.word	0x2001121c

2000f75c <xTimerGenericCommand>:
2000f75c:	b57f      	push	{r0, r1, r2, r3, r4, r5, r6, lr}
2000f75e:	4616      	mov	r6, r2
2000f760:	4604      	mov	r4, r0
2000f762:	461a      	mov	r2, r3
2000f764:	b940      	cbnz	r0, 2000f778 <xTimerGenericCommand+0x1c>
2000f766:	f04f 0350 	mov.w	r3, #80	; 0x50
2000f76a:	f383 8811 	msr	BASEPRI, r3
2000f76e:	f3bf 8f6f 	isb	sy
2000f772:	f3bf 8f4f 	dsb	sy
2000f776:	e7fe      	b.n	2000f776 <xTimerGenericCommand+0x1a>
2000f778:	4d0d      	ldr	r5, [pc, #52]	; (2000f7b0 <xTimerGenericCommand+0x54>)
2000f77a:	6828      	ldr	r0, [r5, #0]
2000f77c:	b180      	cbz	r0, 2000f7a0 <xTimerGenericCommand+0x44>
2000f77e:	2905      	cmp	r1, #5
2000f780:	e9cd 1600 	strd	r1, r6, [sp]
2000f784:	9402      	str	r4, [sp, #8]
2000f786:	dc0d      	bgt.n	2000f7a4 <xTimerGenericCommand+0x48>
2000f788:	f7ff ff10 	bl	2000f5ac <xTaskGetSchedulerState>
2000f78c:	2300      	movs	r3, #0
2000f78e:	2802      	cmp	r0, #2
2000f790:	bf08      	it	eq
2000f792:	9a08      	ldreq	r2, [sp, #32]
2000f794:	6828      	ldr	r0, [r5, #0]
2000f796:	bf18      	it	ne
2000f798:	461a      	movne	r2, r3
2000f79a:	4669      	mov	r1, sp
2000f79c:	f7ff f8c8 	bl	2000e930 <xQueueGenericSend>
2000f7a0:	b004      	add	sp, #16
2000f7a2:	bd70      	pop	{r4, r5, r6, pc}
2000f7a4:	2300      	movs	r3, #0
2000f7a6:	4669      	mov	r1, sp
2000f7a8:	f7ff f974 	bl	2000ea94 <xQueueGenericSendFromISR>
2000f7ac:	e7f8      	b.n	2000f7a0 <xTimerGenericCommand+0x44>
2000f7ae:	bf00      	nop
2000f7b0:	20011218 	.word	0x20011218

2000f7b4 <prvSwitchTimerLists>:
2000f7b4:	b5f0      	push	{r4, r5, r6, r7, lr}
2000f7b6:	4d1c      	ldr	r5, [pc, #112]	; (2000f828 <prvSwitchTimerLists+0x74>)
2000f7b8:	b085      	sub	sp, #20
2000f7ba:	2700      	movs	r7, #0
2000f7bc:	682b      	ldr	r3, [r5, #0]
2000f7be:	681a      	ldr	r2, [r3, #0]
2000f7c0:	b92a      	cbnz	r2, 2000f7ce <prvSwitchTimerLists+0x1a>
2000f7c2:	4a1a      	ldr	r2, [pc, #104]	; (2000f82c <prvSwitchTimerLists+0x78>)
2000f7c4:	6811      	ldr	r1, [r2, #0]
2000f7c6:	6029      	str	r1, [r5, #0]
2000f7c8:	6013      	str	r3, [r2, #0]
2000f7ca:	b005      	add	sp, #20
2000f7cc:	bdf0      	pop	{r4, r5, r6, r7, pc}
2000f7ce:	68db      	ldr	r3, [r3, #12]
2000f7d0:	68dc      	ldr	r4, [r3, #12]
2000f7d2:	681e      	ldr	r6, [r3, #0]
2000f7d4:	1d21      	adds	r1, r4, #4
2000f7d6:	4608      	mov	r0, r1
2000f7d8:	9103      	str	r1, [sp, #12]
2000f7da:	f7fe ff7c 	bl	2000e6d6 <uxListRemove>
2000f7de:	6a23      	ldr	r3, [r4, #32]
2000f7e0:	4620      	mov	r0, r4
2000f7e2:	4798      	blx	r3
2000f7e4:	f894 3028 	ldrb.w	r3, [r4, #40]	; 0x28
2000f7e8:	9903      	ldr	r1, [sp, #12]
2000f7ea:	f013 0f04 	tst.w	r3, #4
2000f7ee:	d0e5      	beq.n	2000f7bc <prvSwitchTimerLists+0x8>
2000f7f0:	69a3      	ldr	r3, [r4, #24]
2000f7f2:	4433      	add	r3, r6
2000f7f4:	429e      	cmp	r6, r3
2000f7f6:	d205      	bcs.n	2000f804 <prvSwitchTimerLists+0x50>
2000f7f8:	6828      	ldr	r0, [r5, #0]
2000f7fa:	6063      	str	r3, [r4, #4]
2000f7fc:	6124      	str	r4, [r4, #16]
2000f7fe:	f7fe ff53 	bl	2000e6a8 <vListInsert>
2000f802:	e7db      	b.n	2000f7bc <prvSwitchTimerLists+0x8>
2000f804:	2300      	movs	r3, #0
2000f806:	9700      	str	r7, [sp, #0]
2000f808:	4632      	mov	r2, r6
2000f80a:	4619      	mov	r1, r3
2000f80c:	4620      	mov	r0, r4
2000f80e:	f7ff ffa5 	bl	2000f75c <xTimerGenericCommand>
2000f812:	2800      	cmp	r0, #0
2000f814:	d1d2      	bne.n	2000f7bc <prvSwitchTimerLists+0x8>
2000f816:	f04f 0350 	mov.w	r3, #80	; 0x50
2000f81a:	f383 8811 	msr	BASEPRI, r3
2000f81e:	f3bf 8f6f 	isb	sy
2000f822:	f3bf 8f4f 	dsb	sy
2000f826:	e7fe      	b.n	2000f826 <prvSwitchTimerLists+0x72>
2000f828:	200110f4 	.word	0x200110f4
2000f82c:	200110f8 	.word	0x200110f8

2000f830 <prvTimerTask>:
2000f830:	e92d 4ff0 	stmdb	sp!, {r4, r5, r6, r7, r8, r9, sl, fp, lr}
2000f834:	4f77      	ldr	r7, [pc, #476]	; (2000fa14 <prvTimerTask+0x1e4>)
2000f836:	f8df a1ec 	ldr.w	sl, [pc, #492]	; 2000fa24 <prvTimerTask+0x1f4>
2000f83a:	b087      	sub	sp, #28
2000f83c:	46b9      	mov	r9, r7
2000f83e:	683b      	ldr	r3, [r7, #0]
2000f840:	f8d3 b000 	ldr.w	fp, [r3]
2000f844:	f1bb 0f00 	cmp.w	fp, #0
2000f848:	d028      	beq.n	2000f89c <prvTimerTask+0x6c>
2000f84a:	68db      	ldr	r3, [r3, #12]
2000f84c:	f8d3 b000 	ldr.w	fp, [r3]
2000f850:	2400      	movs	r4, #0
2000f852:	4e71      	ldr	r6, [pc, #452]	; (2000fa18 <prvTimerTask+0x1e8>)
2000f854:	f7ff fc68 	bl	2000f128 <vTaskSuspendAll>
2000f858:	f7ff fc6e 	bl	2000f138 <xTaskGetTickCount>
2000f85c:	6833      	ldr	r3, [r6, #0]
2000f85e:	4298      	cmp	r0, r3
2000f860:	4605      	mov	r5, r0
2000f862:	46b0      	mov	r8, r6
2000f864:	d31c      	bcc.n	2000f8a0 <prvTimerTask+0x70>
2000f866:	6030      	str	r0, [r6, #0]
2000f868:	b31c      	cbz	r4, 2000f8b2 <prvTimerTask+0x82>
2000f86a:	4b6c      	ldr	r3, [pc, #432]	; (2000fa1c <prvTimerTask+0x1ec>)
2000f86c:	681b      	ldr	r3, [r3, #0]
2000f86e:	681c      	ldr	r4, [r3, #0]
2000f870:	fab4 f484 	clz	r4, r4
2000f874:	0964      	lsrs	r4, r4, #5
2000f876:	4b6a      	ldr	r3, [pc, #424]	; (2000fa20 <prvTimerTask+0x1f0>)
2000f878:	4622      	mov	r2, r4
2000f87a:	6818      	ldr	r0, [r3, #0]
2000f87c:	ebab 0105 	sub.w	r1, fp, r5
2000f880:	f7ff fa1c 	bl	2000ecbc <vQueueWaitForMessageRestricted>
2000f884:	f7ff fcf4 	bl	2000f270 <xTaskResumeAll>
2000f888:	b978      	cbnz	r0, 2000f8aa <prvTimerTask+0x7a>
2000f88a:	f04f 5380 	mov.w	r3, #268435456	; 0x10000000
2000f88e:	f8ca 3000 	str.w	r3, [sl]
2000f892:	f3bf 8f4f 	dsb	sy
2000f896:	f3bf 8f6f 	isb	sy
2000f89a:	e006      	b.n	2000f8aa <prvTimerTask+0x7a>
2000f89c:	2401      	movs	r4, #1
2000f89e:	e7d8      	b.n	2000f852 <prvTimerTask+0x22>
2000f8a0:	f7ff ff88 	bl	2000f7b4 <prvSwitchTimerLists>
2000f8a4:	6035      	str	r5, [r6, #0]
2000f8a6:	f7ff fce3 	bl	2000f270 <xTaskResumeAll>
2000f8aa:	4e5d      	ldr	r6, [pc, #372]	; (2000fa20 <prvTimerTask+0x1f0>)
2000f8ac:	f04f 0b00 	mov.w	fp, #0
2000f8b0:	e035      	b.n	2000f91e <prvTimerTask+0xee>
2000f8b2:	4583      	cmp	fp, r0
2000f8b4:	d8df      	bhi.n	2000f876 <prvTimerTask+0x46>
2000f8b6:	f7ff fcdb 	bl	2000f270 <xTaskResumeAll>
2000f8ba:	f8d9 3000 	ldr.w	r3, [r9]
2000f8be:	68db      	ldr	r3, [r3, #12]
2000f8c0:	68de      	ldr	r6, [r3, #12]
2000f8c2:	1d30      	adds	r0, r6, #4
2000f8c4:	f7fe ff07 	bl	2000e6d6 <uxListRemove>
2000f8c8:	f896 3028 	ldrb.w	r3, [r6, #40]	; 0x28
2000f8cc:	0758      	lsls	r0, r3, #29
2000f8ce:	d518      	bpl.n	2000f902 <prvTimerTask+0xd2>
2000f8d0:	69b1      	ldr	r1, [r6, #24]
2000f8d2:	465b      	mov	r3, fp
2000f8d4:	462a      	mov	r2, r5
2000f8d6:	4459      	add	r1, fp
2000f8d8:	4630      	mov	r0, r6
2000f8da:	f7ff feef 	bl	2000f6bc <prvInsertTimerInActiveList>
2000f8de:	b1a0      	cbz	r0, 2000f90a <prvTimerTask+0xda>
2000f8e0:	9400      	str	r4, [sp, #0]
2000f8e2:	4623      	mov	r3, r4
2000f8e4:	465a      	mov	r2, fp
2000f8e6:	4621      	mov	r1, r4
2000f8e8:	4630      	mov	r0, r6
2000f8ea:	f7ff ff37 	bl	2000f75c <xTimerGenericCommand>
2000f8ee:	b960      	cbnz	r0, 2000f90a <prvTimerTask+0xda>
2000f8f0:	f04f 0350 	mov.w	r3, #80	; 0x50
2000f8f4:	f383 8811 	msr	BASEPRI, r3
2000f8f8:	f3bf 8f6f 	isb	sy
2000f8fc:	f3bf 8f4f 	dsb	sy
2000f900:	e7fe      	b.n	2000f900 <prvTimerTask+0xd0>
2000f902:	f023 0301 	bic.w	r3, r3, #1
2000f906:	f886 3028 	strb.w	r3, [r6, #40]	; 0x28
2000f90a:	6a33      	ldr	r3, [r6, #32]
2000f90c:	4630      	mov	r0, r6
2000f90e:	4798      	blx	r3
2000f910:	e7cb      	b.n	2000f8aa <prvTimerTask+0x7a>
2000f912:	9b03      	ldr	r3, [sp, #12]
2000f914:	9905      	ldr	r1, [sp, #20]
2000f916:	4798      	blx	r3
2000f918:	9b02      	ldr	r3, [sp, #8]
2000f91a:	2b00      	cmp	r3, #0
2000f91c:	da0a      	bge.n	2000f934 <prvTimerTask+0x104>
2000f91e:	6830      	ldr	r0, [r6, #0]
2000f920:	2200      	movs	r2, #0
2000f922:	a902      	add	r1, sp, #8
2000f924:	f7ff f918 	bl	2000eb58 <xQueueReceive>
2000f928:	2800      	cmp	r0, #0
2000f92a:	d088      	beq.n	2000f83e <prvTimerTask+0xe>
2000f92c:	9b02      	ldr	r3, [sp, #8]
2000f92e:	9804      	ldr	r0, [sp, #16]
2000f930:	2b00      	cmp	r3, #0
2000f932:	dbee      	blt.n	2000f912 <prvTimerTask+0xe2>
2000f934:	9c04      	ldr	r4, [sp, #16]
2000f936:	6963      	ldr	r3, [r4, #20]
2000f938:	b9a3      	cbnz	r3, 2000f964 <prvTimerTask+0x134>
2000f93a:	f7ff fbfd 	bl	2000f138 <xTaskGetTickCount>
2000f93e:	f8d8 3000 	ldr.w	r3, [r8]
2000f942:	4298      	cmp	r0, r3
2000f944:	4605      	mov	r5, r0
2000f946:	d201      	bcs.n	2000f94c <prvTimerTask+0x11c>
2000f948:	f7ff ff34 	bl	2000f7b4 <prvSwitchTimerLists>
2000f94c:	9b02      	ldr	r3, [sp, #8]
2000f94e:	f8c8 5000 	str.w	r5, [r8]
2000f952:	2b09      	cmp	r3, #9
2000f954:	d8e3      	bhi.n	2000f91e <prvTimerTask+0xee>
2000f956:	e8df f003 	tbb	[pc, r3]
2000f95a:	0909      	.short	0x0909
2000f95c:	543b3409 	.word	0x543b3409
2000f960:	3b340909 	.word	0x3b340909
2000f964:	1d20      	adds	r0, r4, #4
2000f966:	f7fe feb6 	bl	2000e6d6 <uxListRemove>
2000f96a:	e7e6      	b.n	2000f93a <prvTimerTask+0x10a>
2000f96c:	f894 3028 	ldrb.w	r3, [r4, #40]	; 0x28
2000f970:	69a1      	ldr	r1, [r4, #24]
2000f972:	f043 0301 	orr.w	r3, r3, #1
2000f976:	f884 3028 	strb.w	r3, [r4, #40]	; 0x28
2000f97a:	9b03      	ldr	r3, [sp, #12]
2000f97c:	462a      	mov	r2, r5
2000f97e:	4419      	add	r1, r3
2000f980:	4620      	mov	r0, r4
2000f982:	f7ff fe9b 	bl	2000f6bc <prvInsertTimerInActiveList>
2000f986:	2800      	cmp	r0, #0
2000f988:	d0c9      	beq.n	2000f91e <prvTimerTask+0xee>
2000f98a:	6a23      	ldr	r3, [r4, #32]
2000f98c:	4620      	mov	r0, r4
2000f98e:	4798      	blx	r3
2000f990:	f894 3028 	ldrb.w	r3, [r4, #40]	; 0x28
2000f994:	0759      	lsls	r1, r3, #29
2000f996:	d5c2      	bpl.n	2000f91e <prvTimerTask+0xee>
2000f998:	69a2      	ldr	r2, [r4, #24]
2000f99a:	9903      	ldr	r1, [sp, #12]
2000f99c:	f8cd b000 	str.w	fp, [sp]
2000f9a0:	2300      	movs	r3, #0
2000f9a2:	440a      	add	r2, r1
2000f9a4:	4620      	mov	r0, r4
2000f9a6:	4619      	mov	r1, r3
2000f9a8:	f7ff fed8 	bl	2000f75c <xTimerGenericCommand>
2000f9ac:	2800      	cmp	r0, #0
2000f9ae:	d1b6      	bne.n	2000f91e <prvTimerTask+0xee>
2000f9b0:	f04f 0350 	mov.w	r3, #80	; 0x50
2000f9b4:	f383 8811 	msr	BASEPRI, r3
2000f9b8:	f3bf 8f6f 	isb	sy
2000f9bc:	f3bf 8f4f 	dsb	sy
2000f9c0:	e7fe      	b.n	2000f9c0 <prvTimerTask+0x190>
2000f9c2:	f894 3028 	ldrb.w	r3, [r4, #40]	; 0x28
2000f9c6:	f023 0301 	bic.w	r3, r3, #1
2000f9ca:	f884 3028 	strb.w	r3, [r4, #40]	; 0x28
2000f9ce:	e7a6      	b.n	2000f91e <prvTimerTask+0xee>
2000f9d0:	f894 3028 	ldrb.w	r3, [r4, #40]	; 0x28
2000f9d4:	9903      	ldr	r1, [sp, #12]
2000f9d6:	61a1      	str	r1, [r4, #24]
2000f9d8:	f043 0301 	orr.w	r3, r3, #1
2000f9dc:	f884 3028 	strb.w	r3, [r4, #40]	; 0x28
2000f9e0:	b941      	cbnz	r1, 2000f9f4 <prvTimerTask+0x1c4>
2000f9e2:	f04f 0350 	mov.w	r3, #80	; 0x50
2000f9e6:	f383 8811 	msr	BASEPRI, r3
2000f9ea:	f3bf 8f6f 	isb	sy
2000f9ee:	f3bf 8f4f 	dsb	sy
2000f9f2:	e7fe      	b.n	2000f9f2 <prvTimerTask+0x1c2>
2000f9f4:	462b      	mov	r3, r5
2000f9f6:	462a      	mov	r2, r5
2000f9f8:	4429      	add	r1, r5
2000f9fa:	4620      	mov	r0, r4
2000f9fc:	f7ff fe5e 	bl	2000f6bc <prvInsertTimerInActiveList>
2000fa00:	e78d      	b.n	2000f91e <prvTimerTask+0xee>
2000fa02:	f894 3028 	ldrb.w	r3, [r4, #40]	; 0x28
2000fa06:	079a      	lsls	r2, r3, #30
2000fa08:	d4dd      	bmi.n	2000f9c6 <prvTimerTask+0x196>
2000fa0a:	4620      	mov	r0, r4
2000fa0c:	f000 fa6c 	bl	2000fee8 <vPortFree>
2000fa10:	e785      	b.n	2000f91e <prvTimerTask+0xee>
2000fa12:	bf00      	nop
2000fa14:	200110f4 	.word	0x200110f4
2000fa18:	200111c4 	.word	0x200111c4
2000fa1c:	200110f8 	.word	0x200110f8
2000fa20:	20011218 	.word	0x20011218
2000fa24:	e000ed04 	.word	0xe000ed04

2000fa28 <prvPortStartFirstTask>:
2000fa28:	4808      	ldr	r0, [pc, #32]	; (2000fa4c <prvPortStartFirstTask+0x24>)
2000fa2a:	6800      	ldr	r0, [r0, #0]
2000fa2c:	6800      	ldr	r0, [r0, #0]
2000fa2e:	f380 8808 	msr	MSP, r0
2000fa32:	f04f 0000 	mov.w	r0, #0
2000fa36:	f380 8814 	msr	CONTROL, r0
2000fa3a:	b662      	cpsie	i
2000fa3c:	b661      	cpsie	f
2000fa3e:	f3bf 8f4f 	dsb	sy
2000fa42:	f3bf 8f6f 	isb	sy
2000fa46:	df00      	svc	0
2000fa48:	bf00      	nop
2000fa4a:	0000      	.short	0x0000
2000fa4c:	e000ed08 	.word	0xe000ed08

2000fa50 <vPortEnableVFP>:
2000fa50:	f8df 000c 	ldr.w	r0, [pc, #12]	; 2000fa60 <vPortEnableVFP+0x10>
2000fa54:	6801      	ldr	r1, [r0, #0]
2000fa56:	f441 0170 	orr.w	r1, r1, #15728640	; 0xf00000
2000fa5a:	6001      	str	r1, [r0, #0]
2000fa5c:	4770      	bx	lr
2000fa5e:	0000      	.short	0x0000
2000fa60:	e000ed88 	.word	0xe000ed88

2000fa64 <prvTaskExitError>:
2000fa64:	b082      	sub	sp, #8
2000fa66:	2300      	movs	r3, #0
2000fa68:	9301      	str	r3, [sp, #4]
2000fa6a:	4b0d      	ldr	r3, [pc, #52]	; (2000faa0 <prvTaskExitError+0x3c>)
2000fa6c:	681b      	ldr	r3, [r3, #0]
2000fa6e:	3301      	adds	r3, #1
2000fa70:	d008      	beq.n	2000fa84 <prvTaskExitError+0x20>
2000fa72:	f04f 0350 	mov.w	r3, #80	; 0x50
2000fa76:	f383 8811 	msr	BASEPRI, r3
2000fa7a:	f3bf 8f6f 	isb	sy
2000fa7e:	f3bf 8f4f 	dsb	sy
2000fa82:	e7fe      	b.n	2000fa82 <prvTaskExitError+0x1e>
2000fa84:	f04f 0350 	mov.w	r3, #80	; 0x50
2000fa88:	f383 8811 	msr	BASEPRI, r3
2000fa8c:	f3bf 8f6f 	isb	sy
2000fa90:	f3bf 8f4f 	dsb	sy
2000fa94:	9b01      	ldr	r3, [sp, #4]
2000fa96:	2b00      	cmp	r3, #0
2000fa98:	d0fc      	beq.n	2000fa94 <prvTaskExitError+0x30>
2000fa9a:	b002      	add	sp, #8
2000fa9c:	4770      	bx	lr
2000fa9e:	bf00      	nop
2000faa0:	200104c4 	.word	0x200104c4

2000faa4 <pxPortInitialiseStack>:
2000faa4:	f04f 7380 	mov.w	r3, #16777216	; 0x1000000
2000faa8:	f840 3c04 	str.w	r3, [r0, #-4]
2000faac:	4b07      	ldr	r3, [pc, #28]	; (2000facc <pxPortInitialiseStack+0x28>)
2000faae:	f840 3c0c 	str.w	r3, [r0, #-12]
2000fab2:	f021 0101 	bic.w	r1, r1, #1
2000fab6:	f06f 0302 	mvn.w	r3, #2
2000faba:	f840 1c08 	str.w	r1, [r0, #-8]
2000fabe:	f840 2c20 	str.w	r2, [r0, #-32]
2000fac2:	f840 3c24 	str.w	r3, [r0, #-36]
2000fac6:	3844      	subs	r0, #68	; 0x44
2000fac8:	4770      	bx	lr
2000faca:	bf00      	nop
2000facc:	2000fa65 	.word	0x2000fa65

2000fad0 <SVC_Handler>:
2000fad0:	4b07      	ldr	r3, [pc, #28]	; (2000faf0 <pxCurrentTCBConst2>)
2000fad2:	6819      	ldr	r1, [r3, #0]
2000fad4:	6808      	ldr	r0, [r1, #0]
2000fad6:	e8b0 4ff0 	ldmia.w	r0!, {r4, r5, r6, r7, r8, r9, sl, fp, lr}
2000fada:	f380 8809 	msr	PSP, r0
2000fade:	f3bf 8f6f 	isb	sy
2000fae2:	f04f 0000 	mov.w	r0, #0
2000fae6:	f380 8811 	msr	BASEPRI, r0
2000faea:	4770      	bx	lr
2000faec:	f3af 8000 	nop.w

2000faf0 <pxCurrentTCBConst2>:
2000faf0:	20010bf8 	.word	0x20010bf8

2000faf4 <vPortEnterCritical>:
2000faf4:	f04f 0350 	mov.w	r3, #80	; 0x50
2000faf8:	f383 8811 	msr	BASEPRI, r3
2000fafc:	f3bf 8f6f 	isb	sy
2000fb00:	f3bf 8f4f 	dsb	sy
2000fb04:	4a0a      	ldr	r2, [pc, #40]	; (2000fb30 <vPortEnterCritical+0x3c>)
2000fb06:	6813      	ldr	r3, [r2, #0]
2000fb08:	3301      	adds	r3, #1
2000fb0a:	2b01      	cmp	r3, #1
2000fb0c:	6013      	str	r3, [r2, #0]
2000fb0e:	d10d      	bne.n	2000fb2c <vPortEnterCritical+0x38>
2000fb10:	4b08      	ldr	r3, [pc, #32]	; (2000fb34 <vPortEnterCritical+0x40>)
2000fb12:	681b      	ldr	r3, [r3, #0]
2000fb14:	f013 0fff 	tst.w	r3, #255	; 0xff
2000fb18:	d008      	beq.n	2000fb2c <vPortEnterCritical+0x38>
2000fb1a:	f04f 0350 	mov.w	r3, #80	; 0x50
2000fb1e:	f383 8811 	msr	BASEPRI, r3
2000fb22:	f3bf 8f6f 	isb	sy
2000fb26:	f3bf 8f4f 	dsb	sy
2000fb2a:	e7fe      	b.n	2000fb2a <vPortEnterCritical+0x36>
2000fb2c:	4770      	bx	lr
2000fb2e:	bf00      	nop
2000fb30:	200104c4 	.word	0x200104c4
2000fb34:	e000ed04 	.word	0xe000ed04

2000fb38 <vPortExitCritical>:
2000fb38:	4a08      	ldr	r2, [pc, #32]	; (2000fb5c <vPortExitCritical+0x24>)
2000fb3a:	6813      	ldr	r3, [r2, #0]
2000fb3c:	b943      	cbnz	r3, 2000fb50 <vPortExitCritical+0x18>
2000fb3e:	f04f 0350 	mov.w	r3, #80	; 0x50
2000fb42:	f383 8811 	msr	BASEPRI, r3
2000fb46:	f3bf 8f6f 	isb	sy
2000fb4a:	f3bf 8f4f 	dsb	sy
2000fb4e:	e7fe      	b.n	2000fb4e <vPortExitCritical+0x16>
2000fb50:	3b01      	subs	r3, #1
2000fb52:	6013      	str	r3, [r2, #0]
2000fb54:	b90b      	cbnz	r3, 2000fb5a <vPortExitCritical+0x22>
2000fb56:	f383 8811 	msr	BASEPRI, r3
2000fb5a:	4770      	bx	lr
2000fb5c:	200104c4 	.word	0x200104c4

2000fb60 <PendSV_Handler>:
2000fb60:	f3ef 8009 	mrs	r0, PSP
2000fb64:	f3bf 8f6f 	isb	sy
2000fb68:	4b15      	ldr	r3, [pc, #84]	; (2000fbc0 <pxCurrentTCBConst>)
2000fb6a:	681a      	ldr	r2, [r3, #0]
2000fb6c:	f01e 0f10 	tst.w	lr, #16
2000fb70:	bf08      	it	eq
2000fb72:	ed20 8a10 	vstmdbeq	r0!, {s16-s31}
2000fb76:	e920 4ff0 	stmdb	r0!, {r4, r5, r6, r7, r8, r9, sl, fp, lr}
2000fb7a:	6010      	str	r0, [r2, #0]
2000fb7c:	e92d 0009 	stmdb	sp!, {r0, r3}
2000fb80:	f04f 0050 	mov.w	r0, #80	; 0x50
2000fb84:	f380 8811 	msr	BASEPRI, r0
2000fb88:	f3bf 8f4f 	dsb	sy
2000fb8c:	f3bf 8f6f 	isb	sy
2000fb90:	f7ff fc06 	bl	2000f3a0 <vTaskSwitchContext>
2000fb94:	f04f 0000 	mov.w	r0, #0
2000fb98:	f380 8811 	msr	BASEPRI, r0
2000fb9c:	bc09      	pop	{r0, r3}
2000fb9e:	6819      	ldr	r1, [r3, #0]
2000fba0:	6808      	ldr	r0, [r1, #0]
2000fba2:	e8b0 4ff0 	ldmia.w	r0!, {r4, r5, r6, r7, r8, r9, sl, fp, lr}
2000fba6:	f01e 0f10 	tst.w	lr, #16
2000fbaa:	bf08      	it	eq
2000fbac:	ecb0 8a10 	vldmiaeq	r0!, {s16-s31}
2000fbb0:	f380 8809 	msr	PSP, r0
2000fbb4:	f3bf 8f6f 	isb	sy
2000fbb8:	4770      	bx	lr
2000fbba:	bf00      	nop
2000fbbc:	f3af 8000 	nop.w

2000fbc0 <pxCurrentTCBConst>:
2000fbc0:	20010bf8 	.word	0x20010bf8

2000fbc4 <SysTick_Handler>:
2000fbc4:	b508      	push	{r3, lr}
2000fbc6:	f04f 0350 	mov.w	r3, #80	; 0x50
2000fbca:	f383 8811 	msr	BASEPRI, r3
2000fbce:	f3bf 8f6f 	isb	sy
2000fbd2:	f3bf 8f4f 	dsb	sy
2000fbd6:	f7ff fab5 	bl	2000f144 <xTaskIncrementTick>
2000fbda:	b118      	cbz	r0, 2000fbe4 <SysTick_Handler+0x20>
2000fbdc:	4b03      	ldr	r3, [pc, #12]	; (2000fbec <SysTick_Handler+0x28>)
2000fbde:	f04f 5280 	mov.w	r2, #268435456	; 0x10000000
2000fbe2:	601a      	str	r2, [r3, #0]
2000fbe4:	2300      	movs	r3, #0
2000fbe6:	f383 8811 	msr	BASEPRI, r3
2000fbea:	bd08      	pop	{r3, pc}
2000fbec:	e000ed04 	.word	0xe000ed04

2000fbf0 <vPortSetupTimerInterrupt>:
2000fbf0:	4a08      	ldr	r2, [pc, #32]	; (2000fc14 <vPortSetupTimerInterrupt+0x24>)
2000fbf2:	4909      	ldr	r1, [pc, #36]	; (2000fc18 <vPortSetupTimerInterrupt+0x28>)
2000fbf4:	2300      	movs	r3, #0
2000fbf6:	6013      	str	r3, [r2, #0]
2000fbf8:	600b      	str	r3, [r1, #0]
2000fbfa:	4b08      	ldr	r3, [pc, #32]	; (2000fc1c <vPortSetupTimerInterrupt+0x2c>)
2000fbfc:	f44f 717a 	mov.w	r1, #1000	; 0x3e8
2000fc00:	681b      	ldr	r3, [r3, #0]
2000fc02:	fbb3 f3f1 	udiv	r3, r3, r1
2000fc06:	4906      	ldr	r1, [pc, #24]	; (2000fc20 <vPortSetupTimerInterrupt+0x30>)
2000fc08:	3b01      	subs	r3, #1
2000fc0a:	600b      	str	r3, [r1, #0]
2000fc0c:	2307      	movs	r3, #7
2000fc0e:	6013      	str	r3, [r2, #0]
2000fc10:	4770      	bx	lr
2000fc12:	bf00      	nop
2000fc14:	e000e010 	.word	0xe000e010
2000fc18:	e000e018 	.word	0xe000e018
2000fc1c:	200104b8 	.word	0x200104b8
2000fc20:	e000e014 	.word	0xe000e014

2000fc24 <xPortStartScheduler>:
2000fc24:	4b38      	ldr	r3, [pc, #224]	; (2000fd08 <xPortStartScheduler+0xe4>)
2000fc26:	4a39      	ldr	r2, [pc, #228]	; (2000fd0c <xPortStartScheduler+0xe8>)
2000fc28:	b513      	push	{r0, r1, r4, lr}
2000fc2a:	6819      	ldr	r1, [r3, #0]
2000fc2c:	4291      	cmp	r1, r2
2000fc2e:	d108      	bne.n	2000fc42 <xPortStartScheduler+0x1e>
2000fc30:	f04f 0350 	mov.w	r3, #80	; 0x50
2000fc34:	f383 8811 	msr	BASEPRI, r3
2000fc38:	f3bf 8f6f 	isb	sy
2000fc3c:	f3bf 8f4f 	dsb	sy
2000fc40:	e7fe      	b.n	2000fc40 <xPortStartScheduler+0x1c>
2000fc42:	681a      	ldr	r2, [r3, #0]
2000fc44:	4b32      	ldr	r3, [pc, #200]	; (2000fd10 <xPortStartScheduler+0xec>)
2000fc46:	429a      	cmp	r2, r3
2000fc48:	d108      	bne.n	2000fc5c <xPortStartScheduler+0x38>
2000fc4a:	f04f 0350 	mov.w	r3, #80	; 0x50
2000fc4e:	f383 8811 	msr	BASEPRI, r3
2000fc52:	f3bf 8f6f 	isb	sy
2000fc56:	f3bf 8f4f 	dsb	sy
2000fc5a:	e7fe      	b.n	2000fc5a <xPortStartScheduler+0x36>
2000fc5c:	4b2d      	ldr	r3, [pc, #180]	; (2000fd14 <xPortStartScheduler+0xf0>)
2000fc5e:	781a      	ldrb	r2, [r3, #0]
2000fc60:	b2d2      	uxtb	r2, r2
2000fc62:	9201      	str	r2, [sp, #4]
2000fc64:	22ff      	movs	r2, #255	; 0xff
2000fc66:	701a      	strb	r2, [r3, #0]
2000fc68:	781b      	ldrb	r3, [r3, #0]
2000fc6a:	4a2b      	ldr	r2, [pc, #172]	; (2000fd18 <xPortStartScheduler+0xf4>)
2000fc6c:	b2db      	uxtb	r3, r3
2000fc6e:	f88d 3003 	strb.w	r3, [sp, #3]
2000fc72:	f89d 3003 	ldrb.w	r3, [sp, #3]
2000fc76:	f003 0350 	and.w	r3, r3, #80	; 0x50
2000fc7a:	7013      	strb	r3, [r2, #0]
2000fc7c:	4a27      	ldr	r2, [pc, #156]	; (2000fd1c <xPortStartScheduler+0xf8>)
2000fc7e:	2307      	movs	r3, #7
2000fc80:	6013      	str	r3, [r2, #0]
2000fc82:	2100      	movs	r1, #0
2000fc84:	f89d 0003 	ldrb.w	r0, [sp, #3]
2000fc88:	0600      	lsls	r0, r0, #24
2000fc8a:	f103 34ff 	add.w	r4, r3, #4294967295
2000fc8e:	d40c      	bmi.n	2000fcaa <xPortStartScheduler+0x86>
2000fc90:	b111      	cbz	r1, 2000fc98 <xPortStartScheduler+0x74>
2000fc92:	2b03      	cmp	r3, #3
2000fc94:	6013      	str	r3, [r2, #0]
2000fc96:	d011      	beq.n	2000fcbc <xPortStartScheduler+0x98>
2000fc98:	f04f 0350 	mov.w	r3, #80	; 0x50
2000fc9c:	f383 8811 	msr	BASEPRI, r3
2000fca0:	f3bf 8f6f 	isb	sy
2000fca4:	f3bf 8f4f 	dsb	sy
2000fca8:	e7fe      	b.n	2000fca8 <xPortStartScheduler+0x84>
2000fcaa:	f89d 3003 	ldrb.w	r3, [sp, #3]
2000fcae:	005b      	lsls	r3, r3, #1
2000fcb0:	b2db      	uxtb	r3, r3
2000fcb2:	f88d 3003 	strb.w	r3, [sp, #3]
2000fcb6:	2101      	movs	r1, #1
2000fcb8:	4623      	mov	r3, r4
2000fcba:	e7e3      	b.n	2000fc84 <xPortStartScheduler+0x60>
2000fcbc:	f44f 7340 	mov.w	r3, #768	; 0x300
2000fcc0:	6013      	str	r3, [r2, #0]
2000fcc2:	9b01      	ldr	r3, [sp, #4]
2000fcc4:	4a13      	ldr	r2, [pc, #76]	; (2000fd14 <xPortStartScheduler+0xf0>)
2000fcc6:	b2db      	uxtb	r3, r3
2000fcc8:	7013      	strb	r3, [r2, #0]
2000fcca:	4b15      	ldr	r3, [pc, #84]	; (2000fd20 <xPortStartScheduler+0xfc>)
2000fccc:	681a      	ldr	r2, [r3, #0]
2000fcce:	f442 0270 	orr.w	r2, r2, #15728640	; 0xf00000
2000fcd2:	601a      	str	r2, [r3, #0]
2000fcd4:	681a      	ldr	r2, [r3, #0]
2000fcd6:	f042 4270 	orr.w	r2, r2, #4026531840	; 0xf0000000
2000fcda:	601a      	str	r2, [r3, #0]
2000fcdc:	f7ff ff88 	bl	2000fbf0 <vPortSetupTimerInterrupt>
2000fce0:	4b10      	ldr	r3, [pc, #64]	; (2000fd24 <xPortStartScheduler+0x100>)
2000fce2:	2400      	movs	r4, #0
2000fce4:	601c      	str	r4, [r3, #0]
2000fce6:	f7ff feb3 	bl	2000fa50 <vPortEnableVFP>
2000fcea:	4a0f      	ldr	r2, [pc, #60]	; (2000fd28 <xPortStartScheduler+0x104>)
2000fcec:	6813      	ldr	r3, [r2, #0]
2000fcee:	f043 4340 	orr.w	r3, r3, #3221225472	; 0xc0000000
2000fcf2:	6013      	str	r3, [r2, #0]
2000fcf4:	f7ff fe98 	bl	2000fa28 <prvPortStartFirstTask>
2000fcf8:	f7ff fb52 	bl	2000f3a0 <vTaskSwitchContext>
2000fcfc:	f7ff feb2 	bl	2000fa64 <prvTaskExitError>
2000fd00:	4620      	mov	r0, r4
2000fd02:	b002      	add	sp, #8
2000fd04:	bd10      	pop	{r4, pc}
2000fd06:	bf00      	nop
2000fd08:	e000ed00 	.word	0xe000ed00
2000fd0c:	410fc271 	.word	0x410fc271
2000fd10:	410fc270 	.word	0x410fc270
2000fd14:	e000e400 	.word	0xe000e400
2000fd18:	20011220 	.word	0x20011220
2000fd1c:	20011224 	.word	0x20011224
2000fd20:	e000ed20 	.word	0xe000ed20
2000fd24:	200104c4 	.word	0x200104c4
2000fd28:	e000ef34 	.word	0xe000ef34

2000fd2c <vPortValidateInterruptPriority>:
2000fd2c:	f3ef 8305 	mrs	r3, IPSR
2000fd30:	2b0f      	cmp	r3, #15
2000fd32:	d90e      	bls.n	2000fd52 <vPortValidateInterruptPriority+0x26>
2000fd34:	4a10      	ldr	r2, [pc, #64]	; (2000fd78 <vPortValidateInterruptPriority+0x4c>)
2000fd36:	5c9b      	ldrb	r3, [r3, r2]
2000fd38:	4a10      	ldr	r2, [pc, #64]	; (2000fd7c <vPortValidateInterruptPriority+0x50>)
2000fd3a:	7812      	ldrb	r2, [r2, #0]
2000fd3c:	429a      	cmp	r2, r3
2000fd3e:	d908      	bls.n	2000fd52 <vPortValidateInterruptPriority+0x26>
2000fd40:	f04f 0350 	mov.w	r3, #80	; 0x50
2000fd44:	f383 8811 	msr	BASEPRI, r3
2000fd48:	f3bf 8f6f 	isb	sy
2000fd4c:	f3bf 8f4f 	dsb	sy
2000fd50:	e7fe      	b.n	2000fd50 <vPortValidateInterruptPriority+0x24>
2000fd52:	4b0b      	ldr	r3, [pc, #44]	; (2000fd80 <vPortValidateInterruptPriority+0x54>)
2000fd54:	4a0b      	ldr	r2, [pc, #44]	; (2000fd84 <vPortValidateInterruptPriority+0x58>)
2000fd56:	681b      	ldr	r3, [r3, #0]
2000fd58:	6812      	ldr	r2, [r2, #0]
2000fd5a:	f403 63e0 	and.w	r3, r3, #1792	; 0x700
2000fd5e:	4293      	cmp	r3, r2
2000fd60:	d908      	bls.n	2000fd74 <vPortValidateInterruptPriority+0x48>
2000fd62:	f04f 0350 	mov.w	r3, #80	; 0x50
2000fd66:	f383 8811 	msr	BASEPRI, r3
2000fd6a:	f3bf 8f6f 	isb	sy
2000fd6e:	f3bf 8f4f 	dsb	sy
2000fd72:	e7fe      	b.n	2000fd72 <vPortValidateInterruptPriority+0x46>
2000fd74:	4770      	bx	lr
2000fd76:	bf00      	nop
2000fd78:	e000e3f0 	.word	0xe000e3f0
2000fd7c:	20011220 	.word	0x20011220
2000fd80:	e000ed0c 	.word	0xe000ed0c
2000fd84:	20011224 	.word	0x20011224

2000fd88 <prvInsertBlockIntoFreeList>:
2000fd88:	b510      	push	{r4, lr}
2000fd8a:	4b0f      	ldr	r3, [pc, #60]	; (2000fdc8 <prvInsertBlockIntoFreeList+0x40>)
2000fd8c:	461a      	mov	r2, r3
2000fd8e:	681b      	ldr	r3, [r3, #0]
2000fd90:	4283      	cmp	r3, r0
2000fd92:	d3fb      	bcc.n	2000fd8c <prvInsertBlockIntoFreeList+0x4>
2000fd94:	6854      	ldr	r4, [r2, #4]
2000fd96:	1911      	adds	r1, r2, r4
2000fd98:	4288      	cmp	r0, r1
2000fd9a:	bf01      	itttt	eq
2000fd9c:	6841      	ldreq	r1, [r0, #4]
2000fd9e:	4610      	moveq	r0, r2
2000fda0:	1909      	addeq	r1, r1, r4
2000fda2:	6051      	streq	r1, [r2, #4]
2000fda4:	6844      	ldr	r4, [r0, #4]
2000fda6:	1901      	adds	r1, r0, r4
2000fda8:	428b      	cmp	r3, r1
2000fdaa:	d107      	bne.n	2000fdbc <prvInsertBlockIntoFreeList+0x34>
2000fdac:	4907      	ldr	r1, [pc, #28]	; (2000fdcc <prvInsertBlockIntoFreeList+0x44>)
2000fdae:	6809      	ldr	r1, [r1, #0]
2000fdb0:	428b      	cmp	r3, r1
2000fdb2:	bf1f      	itttt	ne
2000fdb4:	6859      	ldrne	r1, [r3, #4]
2000fdb6:	681b      	ldrne	r3, [r3, #0]
2000fdb8:	1909      	addne	r1, r1, r4
2000fdba:	6041      	strne	r1, [r0, #4]
2000fdbc:	4290      	cmp	r0, r2
2000fdbe:	6003      	str	r3, [r0, #0]
2000fdc0:	bf18      	it	ne
2000fdc2:	6010      	strne	r0, [r2, #0]
2000fdc4:	bd10      	pop	{r4, pc}
2000fdc6:	bf00      	nop
2000fdc8:	20014e38 	.word	0x20014e38
2000fdcc:	20011228 	.word	0x20011228

2000fdd0 <pvPortMalloc>:
2000fdd0:	e92d 41f0 	stmdb	sp!, {r4, r5, r6, r7, r8, lr}
2000fdd4:	4604      	mov	r4, r0
2000fdd6:	f7ff f9a7 	bl	2000f128 <vTaskSuspendAll>
2000fdda:	4b3c      	ldr	r3, [pc, #240]	; (2000fecc <pvPortMalloc+0xfc>)
2000fddc:	483c      	ldr	r0, [pc, #240]	; (2000fed0 <pvPortMalloc+0x100>)
2000fdde:	681a      	ldr	r2, [r3, #0]
2000fde0:	469c      	mov	ip, r3
2000fde2:	b9d2      	cbnz	r2, 2000fe1a <pvPortMalloc+0x4a>
2000fde4:	4a3b      	ldr	r2, [pc, #236]	; (2000fed4 <pvPortMalloc+0x104>)
2000fde6:	4b3c      	ldr	r3, [pc, #240]	; (2000fed8 <pvPortMalloc+0x108>)
2000fde8:	0755      	lsls	r5, r2, #29
2000fdea:	bf1c      	itt	ne
2000fdec:	3207      	addne	r2, #7
2000fdee:	f022 0207 	bicne.w	r2, r2, #7
2000fdf2:	2100      	movs	r1, #0
2000fdf4:	601a      	str	r2, [r3, #0]
2000fdf6:	6059      	str	r1, [r3, #4]
2000fdf8:	4b38      	ldr	r3, [pc, #224]	; (2000fedc <pvPortMalloc+0x10c>)
2000fdfa:	f023 0307 	bic.w	r3, r3, #7
2000fdfe:	e9c3 1100 	strd	r1, r1, [r3]
2000fe02:	1a99      	subs	r1, r3, r2
2000fe04:	e9c2 3100 	strd	r3, r1, [r2]
2000fe08:	f8cc 3000 	str.w	r3, [ip]
2000fe0c:	4b34      	ldr	r3, [pc, #208]	; (2000fee0 <pvPortMalloc+0x110>)
2000fe0e:	6019      	str	r1, [r3, #0]
2000fe10:	4b34      	ldr	r3, [pc, #208]	; (2000fee4 <pvPortMalloc+0x114>)
2000fe12:	6019      	str	r1, [r3, #0]
2000fe14:	f04f 4300 	mov.w	r3, #2147483648	; 0x80000000
2000fe18:	6003      	str	r3, [r0, #0]
2000fe1a:	6807      	ldr	r7, [r0, #0]
2000fe1c:	4227      	tst	r7, r4
2000fe1e:	d14f      	bne.n	2000fec0 <pvPortMalloc+0xf0>
2000fe20:	2c00      	cmp	r4, #0
2000fe22:	d040      	beq.n	2000fea6 <pvPortMalloc+0xd6>
2000fe24:	f104 0308 	add.w	r3, r4, #8
2000fe28:	0761      	lsls	r1, r4, #29
2000fe2a:	bf1c      	itt	ne
2000fe2c:	f023 0307 	bicne.w	r3, r3, #7
2000fe30:	3308      	addne	r3, #8
2000fe32:	2b00      	cmp	r3, #0
2000fe34:	d044      	beq.n	2000fec0 <pvPortMalloc+0xf0>
2000fe36:	4a2b      	ldr	r2, [pc, #172]	; (2000fee4 <pvPortMalloc+0x114>)
2000fe38:	6816      	ldr	r6, [r2, #0]
2000fe3a:	429e      	cmp	r6, r3
2000fe3c:	4690      	mov	r8, r2
2000fe3e:	d33f      	bcc.n	2000fec0 <pvPortMalloc+0xf0>
2000fe40:	4a25      	ldr	r2, [pc, #148]	; (2000fed8 <pvPortMalloc+0x108>)
2000fe42:	6815      	ldr	r5, [r2, #0]
2000fe44:	6869      	ldr	r1, [r5, #4]
2000fe46:	4299      	cmp	r1, r3
2000fe48:	d201      	bcs.n	2000fe4e <pvPortMalloc+0x7e>
2000fe4a:	6828      	ldr	r0, [r5, #0]
2000fe4c:	b9a8      	cbnz	r0, 2000fe7a <pvPortMalloc+0xaa>
2000fe4e:	f8dc 0000 	ldr.w	r0, [ip]
2000fe52:	42a8      	cmp	r0, r5
2000fe54:	d034      	beq.n	2000fec0 <pvPortMalloc+0xf0>
2000fe56:	1ac9      	subs	r1, r1, r3
2000fe58:	6828      	ldr	r0, [r5, #0]
2000fe5a:	6814      	ldr	r4, [r2, #0]
2000fe5c:	6010      	str	r0, [r2, #0]
2000fe5e:	2910      	cmp	r1, #16
2000fe60:	d912      	bls.n	2000fe88 <pvPortMalloc+0xb8>
2000fe62:	18e8      	adds	r0, r5, r3
2000fe64:	0742      	lsls	r2, r0, #29
2000fe66:	d00b      	beq.n	2000fe80 <pvPortMalloc+0xb0>
2000fe68:	f04f 0350 	mov.w	r3, #80	; 0x50
2000fe6c:	f383 8811 	msr	BASEPRI, r3
2000fe70:	f3bf 8f6f 	isb	sy
2000fe74:	f3bf 8f4f 	dsb	sy
2000fe78:	e7fe      	b.n	2000fe78 <pvPortMalloc+0xa8>
2000fe7a:	462a      	mov	r2, r5
2000fe7c:	4605      	mov	r5, r0
2000fe7e:	e7e1      	b.n	2000fe44 <pvPortMalloc+0x74>
2000fe80:	6041      	str	r1, [r0, #4]
2000fe82:	606b      	str	r3, [r5, #4]
2000fe84:	f7ff ff80 	bl	2000fd88 <prvInsertBlockIntoFreeList>
2000fe88:	4915      	ldr	r1, [pc, #84]	; (2000fee0 <pvPortMalloc+0x110>)
2000fe8a:	686b      	ldr	r3, [r5, #4]
2000fe8c:	6808      	ldr	r0, [r1, #0]
2000fe8e:	1af6      	subs	r6, r6, r3
2000fe90:	431f      	orrs	r7, r3
2000fe92:	4286      	cmp	r6, r0
2000fe94:	f04f 0300 	mov.w	r3, #0
2000fe98:	f8c8 6000 	str.w	r6, [r8]
2000fe9c:	bf38      	it	cc
2000fe9e:	600e      	strcc	r6, [r1, #0]
2000fea0:	3408      	adds	r4, #8
2000fea2:	606f      	str	r7, [r5, #4]
2000fea4:	602b      	str	r3, [r5, #0]
2000fea6:	f7ff f9e3 	bl	2000f270 <xTaskResumeAll>
2000feaa:	0763      	lsls	r3, r4, #29
2000feac:	d00a      	beq.n	2000fec4 <pvPortMalloc+0xf4>
2000feae:	f04f 0350 	mov.w	r3, #80	; 0x50
2000feb2:	f383 8811 	msr	BASEPRI, r3
2000feb6:	f3bf 8f6f 	isb	sy
2000feba:	f3bf 8f4f 	dsb	sy
2000febe:	e7fe      	b.n	2000febe <pvPortMalloc+0xee>
2000fec0:	2400      	movs	r4, #0
2000fec2:	e7f0      	b.n	2000fea6 <pvPortMalloc+0xd6>
2000fec4:	4620      	mov	r0, r4
2000fec6:	e8bd 81f0 	ldmia.w	sp!, {r4, r5, r6, r7, r8, pc}
2000feca:	bf00      	nop
2000fecc:	20011228 	.word	0x20011228
2000fed0:	20014e2c 	.word	0x20014e2c
2000fed4:	2001122c 	.word	0x2001122c
2000fed8:	20014e38 	.word	0x20014e38
2000fedc:	20014e24 	.word	0x20014e24
2000fee0:	20014e34 	.word	0x20014e34
2000fee4:	20014e30 	.word	0x20014e30

2000fee8 <vPortFree>:
2000fee8:	b510      	push	{r4, lr}
2000feea:	4604      	mov	r4, r0
2000feec:	b370      	cbz	r0, 2000ff4c <vPortFree+0x64>
2000feee:	4a18      	ldr	r2, [pc, #96]	; (2000ff50 <vPortFree+0x68>)
2000fef0:	f850 3c04 	ldr.w	r3, [r0, #-4]
2000fef4:	6812      	ldr	r2, [r2, #0]
2000fef6:	4213      	tst	r3, r2
2000fef8:	d108      	bne.n	2000ff0c <vPortFree+0x24>
2000fefa:	f04f 0350 	mov.w	r3, #80	; 0x50
2000fefe:	f383 8811 	msr	BASEPRI, r3
2000ff02:	f3bf 8f6f 	isb	sy
2000ff06:	f3bf 8f4f 	dsb	sy
2000ff0a:	e7fe      	b.n	2000ff0a <vPortFree+0x22>
2000ff0c:	f850 1c08 	ldr.w	r1, [r0, #-8]
2000ff10:	b141      	cbz	r1, 2000ff24 <vPortFree+0x3c>
2000ff12:	f04f 0350 	mov.w	r3, #80	; 0x50
2000ff16:	f383 8811 	msr	BASEPRI, r3
2000ff1a:	f3bf 8f6f 	isb	sy
2000ff1e:	f3bf 8f4f 	dsb	sy
2000ff22:	e7fe      	b.n	2000ff22 <vPortFree+0x3a>
2000ff24:	ea23 0302 	bic.w	r3, r3, r2
2000ff28:	f840 3c04 	str.w	r3, [r0, #-4]
2000ff2c:	f7ff f8fc 	bl	2000f128 <vTaskSuspendAll>
2000ff30:	4a08      	ldr	r2, [pc, #32]	; (2000ff54 <vPortFree+0x6c>)
2000ff32:	f854 3c04 	ldr.w	r3, [r4, #-4]
2000ff36:	6811      	ldr	r1, [r2, #0]
2000ff38:	f1a4 0008 	sub.w	r0, r4, #8
2000ff3c:	440b      	add	r3, r1
2000ff3e:	6013      	str	r3, [r2, #0]
2000ff40:	f7ff ff22 	bl	2000fd88 <prvInsertBlockIntoFreeList>
2000ff44:	e8bd 4010 	ldmia.w	sp!, {r4, lr}
2000ff48:	f7ff b992 	b.w	2000f270 <xTaskResumeAll>
2000ff4c:	bd10      	pop	{r4, pc}
2000ff4e:	bf00      	nop
2000ff50:	20014e2c 	.word	0x20014e2c
2000ff54:	20014e30 	.word	0x20014e30

2000ff58 <__libc_init_array>:
2000ff58:	b570      	push	{r4, r5, r6, lr}
2000ff5a:	4d0d      	ldr	r5, [pc, #52]	; (2000ff90 <__libc_init_array+0x38>)
2000ff5c:	4c0d      	ldr	r4, [pc, #52]	; (2000ff94 <__libc_init_array+0x3c>)
2000ff5e:	1b64      	subs	r4, r4, r5
2000ff60:	10a4      	asrs	r4, r4, #2
2000ff62:	2600      	movs	r6, #0
2000ff64:	42a6      	cmp	r6, r4
2000ff66:	d109      	bne.n	2000ff7c <__libc_init_array+0x24>
2000ff68:	4d0b      	ldr	r5, [pc, #44]	; (2000ff98 <__libc_init_array+0x40>)
2000ff6a:	4c0c      	ldr	r4, [pc, #48]	; (2000ff9c <__libc_init_array+0x44>)
2000ff6c:	f000 f82e 	bl	2000ffcc <_init>
2000ff70:	1b64      	subs	r4, r4, r5
2000ff72:	10a4      	asrs	r4, r4, #2
2000ff74:	2600      	movs	r6, #0
2000ff76:	42a6      	cmp	r6, r4
2000ff78:	d105      	bne.n	2000ff86 <__libc_init_array+0x2e>
2000ff7a:	bd70      	pop	{r4, r5, r6, pc}
2000ff7c:	f855 3b04 	ldr.w	r3, [r5], #4
2000ff80:	4798      	blx	r3
2000ff82:	3601      	adds	r6, #1
2000ff84:	e7ee      	b.n	2000ff64 <__libc_init_array+0xc>
2000ff86:	f855 3b04 	ldr.w	r3, [r5], #4
2000ff8a:	4798      	blx	r3
2000ff8c:	3601      	adds	r6, #1
2000ff8e:	e7f2      	b.n	2000ff76 <__libc_init_array+0x1e>
2000ff90:	200104a4 	.word	0x200104a4
2000ff94:	200104a4 	.word	0x200104a4
2000ff98:	200104a4 	.word	0x200104a4
2000ff9c:	200104a8 	.word	0x200104a8

2000ffa0 <memcpy>:
2000ffa0:	440a      	add	r2, r1
2000ffa2:	4291      	cmp	r1, r2
2000ffa4:	f100 33ff 	add.w	r3, r0, #4294967295
2000ffa8:	d100      	bne.n	2000ffac <memcpy+0xc>
2000ffaa:	4770      	bx	lr
2000ffac:	b510      	push	{r4, lr}
2000ffae:	f811 4b01 	ldrb.w	r4, [r1], #1
2000ffb2:	f803 4f01 	strb.w	r4, [r3, #1]!
2000ffb6:	4291      	cmp	r1, r2
2000ffb8:	d1f9      	bne.n	2000ffae <memcpy+0xe>
2000ffba:	bd10      	pop	{r4, pc}

2000ffbc <memset>:
2000ffbc:	4402      	add	r2, r0
2000ffbe:	4603      	mov	r3, r0
2000ffc0:	4293      	cmp	r3, r2
2000ffc2:	d100      	bne.n	2000ffc6 <memset+0xa>
2000ffc4:	4770      	bx	lr
2000ffc6:	f803 1b01 	strb.w	r1, [r3], #1
2000ffca:	e7f9      	b.n	2000ffc0 <memset+0x4>

2000ffcc <_init>:
2000ffcc:	b5f8      	push	{r3, r4, r5, r6, r7, lr}
2000ffce:	bf00      	nop
2000ffd0:	bcf8      	pop	{r3, r4, r5, r6, r7}
2000ffd2:	bc08      	pop	{r3}
2000ffd4:	469e      	mov	lr, r3
2000ffd6:	4770      	bx	lr

2000ffd8 <_fini>:
2000ffd8:	b5f8      	push	{r3, r4, r5, r6, r7, lr}
2000ffda:	bf00      	nop
2000ffdc:	bcf8      	pop	{r3, r4, r5, r6, r7}
2000ffde:	bc08      	pop	{r3}
2000ffe0:	469e      	mov	lr, r3
2000ffe2:	4770      	bx	lr
